(dp1
S'output'
p2
S"<type 'exceptions.TypeError'> long() argument must be a string or a number, not 'Rows'"
p3
sS'layer'
p4
S'D:\\web2py\\applications\\money\\controllers/default.py'
p5
sS'code'
p6
S'# -*- coding: utf-8 -*-\n# this file is released under public domain and you can use without limitations\nfrom functions import *\n\n#########################################################################\n## This is a sample controller\n## - index is the default action of any application\n## - user is required for authentication and authorization\n## - download is for downloading files uploaded in the db (does streaming)\n## - api is an example of Hypermedia API support and access control\n#########################################################################\n\n@auth.requires_login()\ndef index():\n    """\n    example action using the internationalization operator T and flash\n    rendered by views/default/index.html or views/generic.html\n\n    if you need a simple wiki simply replace the two lines below with:\n    return auth.wiki()\n    """\n    expenses = []\n    success = True\n    message = \'\'\n    money = debit = credit = 0.0\n    cur_month = int(datetime.date.today().month)\n    cur_year = int(datetime.date.today().year)\n    year_list = range(2010,cur_year + 1)\n    if request.vars.cur_month:\n        cur_month = int(request.vars.cur_month)\n    if request.vars.cur_year:\n        cur_year = int(request.vars.cur_year)\n    elif request.vars.is_submition:\n        e_data = request.vars.e_data\n        e_month = e_data.split(\'-\')[1]\n        e_year = request.vars.e_data.split(\'-\')[0]\n        e_description = request.vars.e_description\n        e_type = request.vars.e_type\n        e_value = request.vars.e_value\n        e_payment = request.vars.e_payment\n        e_owner = db(db.auth_user.username == auth.user).select(db.auth_user.id)\n        db.expenses.insert(\n            e_owner=e_owner,\n            e_year=e_year,\n            e_month=e_month,\n            e_data=e_data,\n            e_description=e_description,\n            e_type=e_type,\n            e_value=e_value,\n            e_payment=e_payment,\n        )\n    try:\n        expenses = db(db.expenses.e_year == cur_year)(db.expenses.e_month == cur_month).select(db.expenses.ALL)\n        money_list = db(db.expenses.e_year == cur_year)(db.expenses.e_month == cur_month)(db.expenses.e_payment == \'Dinheiro\').select(db.expenses.e_value)\n        money = reduce(lambda x,y: x+y.e_value, money_list, 0.0)\n        debit_list = db(db.expenses.e_year == cur_year)(db.expenses.e_month == cur_month)(db.expenses.e_payment == \'Cart\xc3\xa3o de D\xc3\xa9bito\').select(db.expenses.e_value)\n        debit = reduce(lambda x,y: x+y.e_value, debit_list, 0.0)\n        credit_list = db(db.expenses.e_year == cur_year)(db.expenses.e_month == cur_month)(db.expenses.e_payment == \'Cart\xc3\xa3o de Cr\xc3\xa9dito\').select(db.expenses.e_value)\n        credit = reduce(lambda x,y: x+y.e_value, credit_list, 0.0)\n    except Exception as err:\n        message = err.message\n        success = False\n    return dict(\n        year_list=year_list,\n        cur_year=cur_year,\n        cur_month=cur_month,\n        expenses=expenses,\n        message=message,\n        success=success,\n        somas={\'money\':money,\'debit\':debit,\'credit\':credit},\n        cur_values = calculate_values(db),\n        appname=\'Gerenciador Financeiro\',\n    )\n\n@auth.requires_login()\ndef inout():\n    expenses = []\n    success = True\n    message = \'\'\n    money = debit = credit = 0.0\n    cur_month = int(datetime.date.today().month)\n    cur_year = int(datetime.date.today().year)\n    year_list = range(2010,cur_year + 1)\n    if request.vars.cur_month:\n        cur_month = int(request.vars.cur_month)\n    if request.vars.cur_year:\n        cur_year = int(request.vars.cur_year)\n    elif request.vars.is_submition:\n        e_register = request.vars.e_register\n        e_data = request.vars.e_data\n        e_month = int(request.vars.e_data.split(\'-\')[1])\n        e_year = int(request.vars.e_data.split(\'-\')[0])\n        e_value = request.vars.e_value\n        e_description = request.vars.e_description\n        e_type = request.vars.e_type\n        e_source = request.vars.e_source\n        e_sink = request.vars.e_sink\n        db.in_out.insert(\n            e_register=e_register,\n            e_year=e_year,\n            e_month=e_month,\n            e_data=e_data,\n            e_description=e_description,\n            e_type=e_type,\n            e_value=e_value,\n            e_source=e_source,\n            e_sink=e_sink,\n        )\n    try:\n        expenses = db(db.in_out.e_year == cur_year)(db.in_out.e_month == cur_month).select(db.in_out.ALL)\n    except Exception as err:\n        message = err.message\n        success = False\n    return dict(\n        year_list=year_list,\n        cur_year=cur_year,\n        cur_month=cur_month,\n        expenses=expenses,\n        message=message,\n        success=success,\n        cur_values = calculate_values(db),\n        appname=\'Gerenciador Financeiro\',\n    )\n\n@auth.requires_login()\ndef planning():\n    expenses = []\n    success = True\n    message = \'\'\n    money = debit = credit = 0.0\n    cur_month = int(datetime.date.today().month)\n    cur_year = int(datetime.date.today().year)\n    year_list = range(2010,cur_year + 1)\n    if request.vars.cur_month:\n        cur_month = int(request.vars.cur_month)\n    if request.vars.cur_year:\n        cur_year = int(request.vars.cur_year)\n    elif request.vars.is_submition:\n        e_register = request.vars.e_register\n        e_description = request.vars.e_description\n        e_type = request.vars.e_type\n        e_value = request.vars.e_value\n        db.planning.insert(\n            e_year=cur_year,\n            e_month=cur_month,\n            e_register=e_register,\n            e_description=e_description,\n#            e_type=e_type,\n            e_value=e_value,\n        )\n    try:\n        expenses = db(db.planning.e_year == cur_year)(db.planning.e_month == cur_month).select(db.planning.ALL)\n    except Exception as err:\n        message = err.message\n        success = False\n    return dict(\n        year_list=year_list,\n        cur_year=cur_year,\n        cur_month=cur_month,\n        expenses=expenses,\n        message=message,\n        success=success,\n        cur_values = calculate_values(db),\n        appname=\'Gerenciador Financeiro\',\n    )\n\n@auth.requires_login()\ndef credit():\n    expenses = []\n    parc = {}\n    success = True\n    message = \'\'\n    money = debit = credit = 0.0\n    cur_day = int(datetime.date.today().day)\n    cur_month = int(datetime.date.today().month)\n    cur_year = int(datetime.date.today().year)\n    year_list = range(2010,cur_year + 1)\n    total_credit = 0.0\n    num = 0\n    if request.vars.cur_month:\n        cur_month = int(request.vars.cur_month)\n    if request.vars.cur_year:\n        cur_year = int(request.vars.cur_year)\n#    elif request.vars.is_submition:\n#        e_data = request.vars.e_data\n#        e_month = e_data.split(\'-\')[1]\n#        e_year = request.vars.e_data.split(\'-\')[0]\n#        e_description = request.vars.e_description\n#        e_type = request.vars.e_type\n#        e_value = request.vars.e_value\n#        e_payment = request.vars.e_payment\n#        db.expenses.insert(\n#            e_year=e_year,\n#            e_month=e_month,\n#            e_data=e_data,\n#            e_description=e_description,\n#            e_type=e_type,\n#            e_value=e_value,\n#            e_payment=e_payment,\n#        )\n    try:\n        #credit_expenses = db(db.expenses.e_payment == \'Cart\xc3\xa3o de Cr\xc3\xa9dito\')(db.expenses.e_year <= cur_year)(db.expenses.e_month <= (cur_year - db.expenses.e_year)* 12 + (cur_month - 1))(db.expenses.e_day <= 26).select(db.expenses.ALL)\n        credit_expenses = db(db.expenses.e_payment == \'Cart\xc3\xa3o de Cr\xc3\xa9dito\').select(db.expenses.ALL)\n        expenses = []\n        for credit_expense in credit_expenses:\n            uid = credit_expense.id\n            year = credit_expense.e_year\n            month = credit_expense.e_month\n            quant = credit_expense.e_quant\n            n_months = 12*(cur_year - year) + (cur_month - month)\n            if n_months > quant: continue\n            day = credit_expense.e_day\n            if not ( (year <= cur_year) and (month <= (12*(cur_year - year) + (cur_month - 1))) and (day <= 26) ): continue\n            num = n_months if n_months <= quant else 0\n            month = credit_expense.e_month + 1 if day <= 26 else credit_expense.e_month + 2\n            month += quant\n            while month > 12:\n                month -= 12\n                year += 1\n            if year > cur_year or month >= cur_month:\n                credit_expense.e_value /= quant\n                credit_expense.e_quant = num\n                expenses.append(credit_expense)\n                parc[uid] = \'%d/%d\'%(num,quant)\n        #expenses = db(db.expenses.e_year == cur_year)( ( (db.expenses.e_month == cur_month) & (db.expenses.e_day < 26) ) | ( (db.expenses.e_month == cur_month - 1) &   (db.expenses.e_day > 27) ) )(db.expenses.e_payment == \'Cart\xc3\xa3o de Cr\xc3\xa9dito\').select(db.expenses.ALL)\n#        money_list = db(db.expenses.e_year == cur_year)(db.expenses.e_month == cur_month)(db.expenses.e_payment == \'Dinheiro\').select(db.expenses.e_value)\n#        money = reduce(lambda x,y: x+y.e_value, money_list, 0.0)\n#        debit_list = db(db.expenses.e_year == cur_year)(db.expenses.e_month == cur_month)(db.expenses.e_payment == \'Cart\xc3\xa3o de D\xc3\xa9bito\').select(db.expenses.e_value)\n#        debit = reduce(lambda x,y: x+y.e_value, debit_list, 0.0)\n#        credit_list = db(db.expenses.e_year == cur_year)(db.expenses.e_month == cur_month)(db.expenses.e_payment == \'Cart\xc3\xa3o de Cr\xc3\xa9dito\').select(db.expenses.e_value)\n        total_credit = reduce(lambda x,y: x+y.e_value, expenses, 0.0)\n    except Exception as err:\n        message = err.message\n        success = False\n    return dict(\n        year_list=year_list,\n        cur_year=cur_year,\n        cur_month=cur_month,\n        expenses=expenses,\n        parc=parc,\n        message=message,\n        success=success,\n        total_credit=total_credit,\n        cur_values = calculate_values(db),\n        appname=\'Gerenciador Financeiro\',\n    )\n\ndef user():\n    """\n    exposes:\n    http://..../[app]/default/user/login\n    http://..../[app]/default/user/logout\n    http://..../[app]/default/user/register\n    http://..../[app]/default/user/profile\n    http://..../[app]/default/user/retrieve_password\n    http://..../[app]/default/user/change_password\n    http://..../[app]/default/user/manage_users (requires membership in\n    use @auth.requires_login()\n        @auth.requires_membership(\'group name\')\n        @auth.requires_permission(\'read\',\'table name\',record_id)\n    to decorate functions that need access control\n    """\n    return dict(form=auth())\n\n\n@cache.action()\ndef download():\n    """\n    allows downloading of uploaded files\n    http://..../[app]/default/download/[filename]\n    """\n    return response.download(request, db)\n\n\ndef call():\n    """\n    exposes services. for example:\n    http://..../[app]/default/call/jsonrpc\n    decorate with @services.jsonrpc the functions to expose\n    supports xml, json, xmlrpc, jsonrpc, amfrpc, rss, csv\n    """\n    return service()\n\n\n@auth.requires_login() \ndef api():\n    """\n    this is example of API with access control\n    WEB2PY provides Hypermedia API (Collection+JSON) Experimental\n    """\n    from gluon.contrib.hypermedia import Collection\n    rules = {\n        \'<tablename>\': {\'GET\':{},\'POST\':{},\'PUT\':{},\'DELETE\':{}},\n        }\n    return Collection(db).process(request,response,rules)\n\nresponse._vars=response._caller(index)\n'
p7
sS'snapshot'
p8
(dp9
S'exception'
p10
(dp11
S'__hash__'
p12
S"<method-wrapper '__hash__' of exceptions.TypeError object>"
p13
sS'__setattr__'
p14
S"<method-wrapper '__setattr__' of exceptions.TypeError object>"
p15
sS'__reduce_ex__'
p16
S'<built-in method __reduce_ex__ of exceptions.TypeError object>'
p17
sS'__getslice__'
p18
S"<method-wrapper '__getslice__' of exceptions.TypeError object>"
p19
sS'__getitem__'
p20
S"<method-wrapper '__getitem__' of exceptions.TypeError object>"
p21
sS'__setstate__'
p22
S'<built-in method __setstate__ of exceptions.TypeError object>'
p23
sS'__reduce__'
p24
S'<built-in method __reduce__ of exceptions.TypeError object>'
p25
sS'__str__'
p26
S"<method-wrapper '__str__' of exceptions.TypeError object>"
p27
sS'__format__'
p28
S'<built-in method __format__ of exceptions.TypeError object>'
p29
sS'__getattribute__'
p30
S"<method-wrapper '__getattribute__' of exceptions.TypeError object>"
p31
sS'__class__'
p32
S"<type 'exceptions.TypeError'>"
p33
sS'__unicode__'
p34
S'<built-in method __unicode__ of exceptions.TypeError object>'
p35
sS'__delattr__'
p36
S"<method-wrapper '__delattr__' of exceptions.TypeError object>"
p37
sS'__subclasshook__'
p38
S'<built-in method __subclasshook__ of type object>'
p39
sS'__repr__'
p40
S"<method-wrapper '__repr__' of exceptions.TypeError object>"
p41
sS'args'
p42
S'("long() argument must be a string or a number, not \'Rows\'",)'
p43
sS'__dict__'
p44
S'{}'
p45
sS'__sizeof__'
p46
S'<built-in method __sizeof__ of exceptions.TypeError object>'
p47
sS'__doc__'
p48
S"'Inappropriate argument type.'"
p49
sS'__init__'
p50
S"<method-wrapper '__init__' of exceptions.TypeError object>"
p51
sS'__new__'
p52
S'<built-in method __new__ of type object>'
p53
ssS'evalue'
p54
S"long() argument must be a string or a number, not 'Rows'"
p55
sS'request'
p56
cgluon.html
XML_unpickle
p57
(S's\xbc\\\x00\x00<div><table><tr><td style="font-weight:bold;vertical-align:top;">ajax</td><td style="vertical-align:top;">:</td><td><div>False</div></td></tr><tr><td style="font-weight:bold;vertical-align:top;">application</td><td style="vertical-align:top;">:</td><td><div>money</div></td></tr><tr><td style="font-weight:bold;vertical-align:top;">args</td><td style="vertical-align:top;">:</td><td><div><table></table></div></td></tr><tr><td style="font-weight:bold;vertical-align:top;">cid</td><td style="vertical-align:top;">:</td><td><div>None</div></td></tr><tr><td style="font-weight:bold;vertical-align:top;">client</td><td style="vertical-align:top;">:</td><td><div>127.0.0.1</div></td></tr><tr><td style="font-weight:bold;vertical-align:top;">controller</td><td style="vertical-align:top;">:</td><td><div>default</div></td></tr><tr><td style="font-weight:bold;vertical-align:top;">cookies</td><td style="vertical-align:top;">:</td><td><div><table><tr><td style="font-weight:bold;vertical-align:top;">session_id_admin</td><td style="vertical-align:top;">:</td><td><div>127.0.0.1-26a2bf2a-5c81-4b5f-8d9f-62820d108296<table><tr><td style="font-weight:bold;vertical-align:top;">comment</td><td style="vertical-align:top;">:</td><td><div></div></td></tr><tr><td style="font-weight:bold;vertical-align:top;">domain</td><td style="vertical-align:top;">:</td><td><div></div></td></tr><tr><td style="font-weight:bold;vertical-align:top;">expires</td><td style="vertical-align:top;">:</td><td><div></div></td></tr><tr><td style="font-weight:bold;vertical-align:top;">httponly</td><td style="vertical-align:top;">:</td><td><div></div></td></tr><tr><td style="font-weight:bold;vertical-align:top;">max-age</td><td style="vertical-align:top;">:</td><td><div></div></td></tr><tr><td style="font-weight:bold;vertical-align:top;">path</td><td style="vertical-align:top;">:</td><td><div></div></td></tr><tr><td style="font-weight:bold;vertical-align:top;">secure</td><td style="vertical-align:top;">:</td><td><div></div></td></tr><tr><td style="font-weight:bold;vertical-align:top;">version</td><td style="vertical-align:top;">:</td><td><div></div></td></tr></table></div></td></tr><tr><td style="font-weight:bold;vertical-align:top;">session_id_money</td><td style="vertical-align:top;">:</td><td><div>127.0.0.1-ae049fcb-2a51-466f-bfe7-4a6ed18001bc<table><tr><td style="font-weight:bold;vertical-align:top;">comment</td><td style="vertical-align:top;">:</td><td><div></div></td></tr><tr><td style="font-weight:bold;vertical-align:top;">domain</td><td style="vertical-align:top;">:</td><td><div></div></td></tr><tr><td style="font-weight:bold;vertical-align:top;">expires</td><td style="vertical-align:top;">:</td><td><div></div></td></tr><tr><td style="font-weight:bold;vertical-align:top;">httponly</td><td style="vertical-align:top;">:</td><td><div></div></td></tr><tr><td style="font-weight:bold;vertical-align:top;">max-age</td><td style="vertical-align:top;">:</td><td><div></div></td></tr><tr><td style="font-weight:bold;vertical-align:top;">path</td><td style="vertical-align:top;">:</td><td><div></div></td></tr><tr><td style="font-weight:bold;vertical-align:top;">secure</td><td style="vertical-align:top;">:</td><td><div></div></td></tr><tr><td style="font-weight:bold;vertical-align:top;">version</td><td style="vertical-align:top;">:</td><td><div></div></td></tr></table></div></td></tr></table></div></td></tr><tr><td style="font-weight:bold;vertical-align:top;">env</td><td style="vertical-align:top;">:</td><td><div><table><tr><td style="font-weight:bold;vertical-align:top;">CONTENT_LENGTH</td><td style="vertical-align:top;">:</td><td><div>118</div></td></tr><tr><td style="font-weight:bold;vertical-align:top;">CONTENT_TYPE</td><td style="vertical-align:top;">:</td><td><div>application/x-www-form-urlencoded</div></td></tr><tr><td style="font-weight:bold;vertical-align:top;">HTTP_ACCEPT</td><td style="vertical-align:top;">:</td><td><div>text/html,application/xhtml+xml,application/xml;q=0.9,*/*;q=0.8</div></td></tr><tr><td style="font-weight:bold;vertical-align:top;">HTTP_ACCEPT_ENCODING</td><td style="vertical-align:top;">:</td><td><div>gzip, deflate</div></td></tr><tr><td style="font-weight:bold;vertical-align:top;">HTTP_ACCEPT_LANGUAGE</td><td style="vertical-align:top;">:</td><td><div>pt-BR,pt;q=0.8,en-US;q=0.5,en;q=0.3</div></td></tr><tr><td style="font-weight:bold;vertical-align:top;">HTTP_CACHE_CONTROL</td><td style="vertical-align:top;">:</td><td><div>max-age=0</div></td></tr><tr><td style="font-weight:bold;vertical-align:top;">HTTP_CONNECTION</td><td style="vertical-align:top;">:</td><td><div>keep-alive</div></td></tr><tr><td style="font-weight:bold;vertical-align:top;">HTTP_CONTENT_LENGTH</td><td style="vertical-align:top;">:</td><td><div>118</div></td></tr><tr><td style="font-weight:bold;vertical-align:top;">HTTP_CONTENT_TYPE</td><td style="vertical-align:top;">:</td><td><div>application/x-www-form-urlencoded</div></td></tr><tr><td style="font-weight:bold;vertical-align:top;">HTTP_COOKIE</td><td style="vertical-align:top;">:</td><td><div>session_id_money=127.0.0.1-ae049fcb-2a51-466f-bfe7-4a6ed18001bc; session_id_admin=127.0.0.1-26a2bf2a-5c81-4b5f-8d9f-62820d108296</div></td></tr><tr><td style="font-weight:bold;vertical-align:top;">HTTP_HOST</td><td style="vertical-align:top;">:</td><td><div>localhost:8000</div></td></tr><tr><td style="font-weight:bold;vertical-align:top;">HTTP_REFERER</td><td style="vertical-align:top;">:</td><td><div>http://localhost:8000/money/default/index</div></td></tr><tr><td style="font-weight:bold;vertical-align:top;">HTTP_USER_AGENT</td><td style="vertical-align:top;">:</td><td><div>Mozilla/5.0 (Windows NT 6.1; WOW64; rv:36.0) Gecko/20100101 Firefox/36.0</div></td></tr><tr><td style="font-weight:bold;vertical-align:top;">PATH_INFO</td><td style="vertical-align:top;">:</td><td><div>/money/default/index</div></td></tr><tr><td style="font-weight:bold;vertical-align:top;">QUERY_STRING</td><td style="vertical-align:top;">:</td><td><div></div></td></tr><tr><td style="font-weight:bold;vertical-align:top;">REMOTE_ADDR</td><td style="vertical-align:top;">:</td><td><div>127.0.0.1</div></td></tr><tr><td style="font-weight:bold;vertical-align:top;">REMOTE_PORT</td><td style="vertical-align:top;">:</td><td><div>54601</div></td></tr><tr><td style="font-weight:bold;vertical-align:top;">REQUEST_METHOD</td><td style="vertical-align:top;">:</td><td><div>POST</div></td></tr><tr><td style="font-weight:bold;vertical-align:top;">SCRIPT_NAME</td><td style="vertical-align:top;">:</td><td><div></div></td></tr><tr><td style="font-weight:bold;vertical-align:top;">SERVER_NAME</td><td style="vertical-align:top;">:</td><td><div>Thundera</div></td></tr><tr><td style="font-weight:bold;vertical-align:top;">SERVER_PORT</td><td style="vertical-align:top;">:</td><td><div>8000</div></td></tr><tr><td style="font-weight:bold;vertical-align:top;">SERVER_PROTOCOL</td><td style="vertical-align:top;">:</td><td><div>HTTP/1.1</div></td></tr><tr><td style="font-weight:bold;vertical-align:top;">SERVER_SOFTWARE</td><td style="vertical-align:top;">:</td><td><div>Rocket 1.2.6</div></td></tr><tr><td style="font-weight:bold;vertical-align:top;">app_folders</td><td style="vertical-align:top;">:</td><td><div>set([&#x27;D:\\\\web2py\\\\applications\\\\money\\\\&#x27;, &#x27;D:\\\\web2py\\\\applications\\\\admin\\\\&#x27;, &#x27;D:\\\\web2py\\\\applications\\\\welcome\\\\&#x27;])</div></td></tr><tr><td style="font-weight:bold;vertical-align:top;">applications_parent</td><td style="vertical-align:top;">:</td><td><div>D:\\web2py</div></td></tr><tr><td style="font-weight:bold;vertical-align:top;">cmd_args</td><td style="vertical-align:top;">:</td><td><div><table></table></div></td></tr><tr><td style="font-weight:bold;vertical-align:top;">cmd_options</td><td style="vertical-align:top;">:</td><td><div>&lt;Values at 0x353d120: {&#x27;verbose&#x27;: False, &#x27;ip&#x27;: &#x27;127.0.0.1&#x27;, &#x27;debuglevel&#x27;: 30, &#x27;with_scheduler&#x27;: False, &#x27;ips&#x27;: [&#x27;fe80::7c89:ab31:75:9941%14&#x27;, &#x27;192.168.0.2&#x27;, &#x27;fe80::25ba:7c74:208b:ebfd%11&#x27;, &#x27;10.0.0.100&#x27;], &#x27;shutdown_timeout&#x27;: 5, &#x27;taskbar&#x27;: False, &#x27;with_coverage&#x27;: False, &#x27;scheduler_groups&#x27;: None, &#x27;port&#x27;: 8000, &#x27;maxthreads&#x27;: None, &#x27;softcron&#x27;: False, &#x27;server_name&#x27;: &#x27;Thundera&#x27;, &#x27;bpython&#x27;: False, &#x27;nogui&#x27;: False, &#x27;pid_filename&#x27;: &#x27;httpserver.pid&#x27;, &#x27;extcron&#x27;: False, &#x27;runcron&#x27;: False, &#x27;run_system_tests&#x27;: False, &#x27;test&#x27;: None, &#x27;folder&#x27;: &#x27;D:\\\\web2py&#x27;, &#x27;config&#x27;: &#x27;&#x27;, &#x27;minthreads&#x27;: None, &#x27;shell&#x27;: None, &#x27;run&#x27;: &#x27;&#x27;, &#x27;log_filename&#x27;: &#x27;httpserver.log&#x27;, &#x27;profiler_dir&#x27;: None, &#x27;args&#x27;: [&#x27;&#x27;], &#x27;socket_timeout&#x27;: 5, &#x27;ssl_ca_certificate&#x27;: None, &#x27;scheduler&#x27;: None, &#x27;interfaces&#x27;: None, &#x27;ssl_private_key&#x27;: &#x27;&#x27;, &#x27;gae&#x27;: None, &#x27;password&#x27;: &#x27;&lt;ask&gt;&#x27;, &#x27;request_queue_size&#x27;: 5, &#x27;ssl_certificate&#x27;: &#x27;&#x27;, &#x27;cronjob&#x27;: False, &#x27;numthreads&#x27;: None, &#x27;quiet&#x27;: False, &#x27;import_models&#x27;: False, &#x27;timeout&#x27;: 10, &#x27;plain&#x27;: False, &#x27;nobanner&#x27;: False}&gt;</div></td></tr><tr><td style="font-weight:bold;vertical-align:top;">content_length</td><td style="vertical-align:top;">:</td><td><div>118</div></td></tr><tr><td style="font-weight:bold;vertical-align:top;">content_type</td><td style="vertical-align:top;">:</td><td><div>application/x-www-form-urlencoded</div></td></tr><tr><td style="font-weight:bold;vertical-align:top;">db_sessions</td><td style="vertical-align:top;">:</td><td><div>set([])</div></td></tr><tr><td style="font-weight:bold;vertical-align:top;">debugging</td><td style="vertical-align:top;">:</td><td><div>True</div></td></tr><tr><td style="font-weight:bold;vertical-align:top;">gluon_parent</td><td style="vertical-align:top;">:</td><td><div>D:\\web2py</div></td></tr><tr><td style="font-weight:bold;vertical-align:top;">http_accept</td><td style="vertical-align:top;">:</td><td><div>text/html,application/xhtml+xml,application/xml;q=0.9,*/*;q=0.8</div></td></tr><tr><td style="font-weight:bold;vertical-align:top;">http_accept_encoding</td><td style="vertical-align:top;">:</td><td><div>gzip, deflate</div></td></tr><tr><td style="font-weight:bold;vertical-align:top;">http_accept_language</td><td style="vertical-align:top;">:</td><td><div>pt-BR,pt;q=0.8,en-US;q=0.5,en;q=0.3</div></td></tr><tr><td style="font-weight:bold;vertical-align:top;">http_cache_control</td><td style="vertical-align:top;">:</td><td><div>max-age=0</div></td></tr><tr><td style="font-weight:bold;vertical-align:top;">http_connection</td><td style="vertical-align:top;">:</td><td><div>keep-alive</div></td></tr><tr><td style="font-weight:bold;vertical-align:top;">http_content_length</td><td style="vertical-align:top;">:</td><td><div>118</div></td></tr><tr><td style="font-weight:bold;vertical-align:top;">http_content_type</td><td style="vertical-align:top;">:</td><td><div>application/x-www-form-urlencoded</div></td></tr><tr><td style="font-weight:bold;vertical-align:top;">http_cookie</td><td style="vertical-align:top;">:</td><td><div>session_id_money=127.0.0.1-ae049fcb-2a51-466f-bfe7-4a6ed18001bc; session_id_admin=127.0.0.1-26a2bf2a-5c81-4b5f-8d9f-62820d108296</div></td></tr><tr><td style="font-weight:bold;vertical-align:top;">http_host</td><td style="vertical-align:top;">:</td><td><div>localhost:8000</div></td></tr><tr><td style="font-weight:bold;vertical-align:top;">http_referer</td><td style="vertical-align:top;">:</td><td><div>http://localhost:8000/money/default/index</div></td></tr><tr><td style="font-weight:bold;vertical-align:top;">http_user_agent</td><td style="vertical-align:top;">:</td><td><div>Mozilla/5.0 (Windows NT 6.1; WOW64; rv:36.0) Gecko/20100101 Firefox/36.0</div></td></tr><tr><td style="font-weight:bold;vertical-align:top;">is_jython</td><td style="vertical-align:top;">:</td><td><div>False</div></td></tr><tr><td style="font-weight:bold;vertical-align:top;">is_pypy</td><td style="vertical-align:top;">:</td><td><div>False</div></td></tr><tr><td style="font-weight:bold;vertical-align:top;">is_source</td><td style="vertical-align:top;">:</td><td><div>False</div></td></tr><tr><td style="font-weight:bold;vertical-align:top;">local_hosts</td><td style="vertical-align:top;">:</td><td><div><table><tr><td><div>fe80::25ba:7c74:208b:ebfd%11</div></td></tr><tr><td><div>Thundera</div></td></tr><tr><td><div>::ffff:127.0.0.1</div></td></tr><tr><td><div>::1</div></td></tr><tr><td><div>192.168.0.2</div></td></tr><tr><td><div>10.0.0.100</div></td></tr><tr><td><div>fe80::7c89:ab31:75:9941%14</div></td></tr><tr><td><div>127.0.0.1</div></td></tr></table></div></td></tr><tr><td style="font-weight:bold;vertical-align:top;">path_info</td><td style="vertical-align:top;">:</td><td><div>/money/default/index</div></td></tr><tr><td style="font-weight:bold;vertical-align:top;">query_string</td><td style="vertical-align:top;">:</td><td><div></div></td></tr><tr><td style="font-weight:bold;vertical-align:top;">remote_addr</td><td style="vertical-align:top;">:</td><td><div>127.0.0.1</div></td></tr><tr><td style="font-weight:bold;vertical-align:top;">remote_port</td><td style="vertical-align:top;">:</td><td><div>54601</div></td></tr><tr><td style="font-weight:bold;vertical-align:top;">request_method</td><td style="vertical-align:top;">:</td><td><div>POST</div></td></tr><tr><td style="font-weight:bold;vertical-align:top;">request_uri</td><td style="vertical-align:top;">:</td><td><div>/money/default/index</div></td></tr><tr><td style="font-weight:bold;vertical-align:top;">script_name</td><td style="vertical-align:top;">:</td><td><div></div></td></tr><tr><td style="font-weight:bold;vertical-align:top;">server_name</td><td style="vertical-align:top;">:</td><td><div>Thundera</div></td></tr><tr><td style="font-weight:bold;vertical-align:top;">server_port</td><td style="vertical-align:top;">:</td><td><div>8000</div></td></tr><tr><td style="font-weight:bold;vertical-align:top;">server_protocol</td><td style="vertical-align:top;">:</td><td><div>HTTP/1.1</div></td></tr><tr><td style="font-weight:bold;vertical-align:top;">server_software</td><td style="vertical-align:top;">:</td><td><div>Rocket 1.2.6</div></td></tr><tr><td style="font-weight:bold;vertical-align:top;">web2py_path</td><td style="vertical-align:top;">:</td><td><div>D:\\web2py</div></td></tr><tr><td style="font-weight:bold;vertical-align:top;">web2py_version</td><td style="vertical-align:top;">:</td><td><div>2.9.12-stable+timestamp.2015.02.15.23.04.25</div></td></tr><tr><td style="font-weight:bold;vertical-align:top;">wsgi.errors</td><td style="vertical-align:top;">:</td><td><div>&lt;open file &#x27;&lt;stderr&gt;&#x27;, mode &#x27;w&#x27; at 0x002AD0D0&gt;</div></td></tr><tr><td style="font-weight:bold;vertical-align:top;">wsgi.file_wrapper</td><td style="vertical-align:top;">:</td><td><div>&lt;class wsgiref.util.FileWrapper at 0x02CC5CE0&gt;</div></td></tr><tr><td style="font-weight:bold;vertical-align:top;">wsgi.input</td><td style="vertical-align:top;">:</td><td><div>&lt;socket._fileobject object at 0x043465F0&gt;</div></td></tr><tr><td style="font-weight:bold;vertical-align:top;">wsgi.multiprocess</td><td style="vertical-align:top;">:</td><td><div>False</div></td></tr><tr><td style="font-weight:bold;vertical-align:top;">wsgi.multithread</td><td style="vertical-align:top;">:</td><td><div>True</div></td></tr><tr><td style="font-weight:bold;vertical-align:top;">wsgi.run_once</td><td style="vertical-align:top;">:</td><td><div>False</div></td></tr><tr><td style="font-weight:bold;vertical-align:top;">wsgi.url_scheme</td><td style="vertical-align:top;">:</td><td><div>http</div></td></tr><tr><td style="font-weight:bold;vertical-align:top;">wsgi.version</td><td style="vertical-align:top;">:</td><td><div><table><tr><td><div>1</div></td></tr><tr><td><div>0</div></td></tr></table></div></td></tr><tr><td style="font-weight:bold;vertical-align:top;">wsgi_errors</td><td style="vertical-align:top;">:</td><td><div>&lt;open file &#x27;&lt;stderr&gt;&#x27;, mode &#x27;w&#x27; at 0x002AD0D0&gt;</div></td></tr><tr><td style="font-weight:bold;vertical-align:top;">wsgi_file_wrapper</td><td style="vertical-align:top;">:</td><td><div>&lt;class wsgiref.util.FileWrapper at 0x02CC5CE0&gt;</div></td></tr><tr><td style="font-weight:bold;vertical-align:top;">wsgi_input</td><td style="vertical-align:top;">:</td><td><div>&lt;socket._fileobject object at 0x043465F0&gt;</div></td></tr><tr><td style="font-weight:bold;vertical-align:top;">wsgi_multiprocess</td><td style="vertical-align:top;">:</td><td><div>False</div></td></tr><tr><td style="font-weight:bold;vertical-align:top;">wsgi_multithread</td><td style="vertical-align:top;">:</td><td><div>True</div></td></tr><tr><td style="font-weight:bold;vertical-align:top;">wsgi_run_once</td><td style="vertical-align:top;">:</td><td><div>False</div></td></tr><tr><td style="font-weight:bold;vertical-align:top;">wsgi_url_scheme</td><td style="vertical-align:top;">:</td><td><div>http</div></td></tr><tr><td style="font-weight:bold;vertical-align:top;">wsgi_version</td><td style="vertical-align:top;">:</td><td><div><table><tr><td><div>1</div></td></tr><tr><td><div>0</div></td></tr></table></div></td></tr></table></div></td></tr><tr><td style="font-weight:bold;vertical-align:top;">extension</td><td style="vertical-align:top;">:</td><td><div>html</div></td></tr><tr><td style="font-weight:bold;vertical-align:top;">folder</td><td style="vertical-align:top;">:</td><td><div>D:\\web2py\\applications\\money\\</div></td></tr><tr><td style="font-weight:bold;vertical-align:top;">function</td><td style="vertical-align:top;">:</td><td><div>index</div></td></tr><tr><td style="font-weight:bold;vertical-align:top;">global_settings</td><td style="vertical-align:top;">:</td><td><div><table><tr><td style="font-weight:bold;vertical-align:top;">app_folders</td><td style="vertical-align:top;">:</td><td><div>set([&#x27;D:\\\\web2py\\\\applications\\\\money\\\\&#x27;, &#x27;D:\\\\web2py\\\\applications\\\\admin\\\\&#x27;, &#x27;D:\\\\web2py\\\\applications\\\\welcome\\\\&#x27;])</div></td></tr><tr><td style="font-weight:bold;vertical-align:top;">applications_parent</td><td style="vertical-align:top;">:</td><td><div>D:\\web2py</div></td></tr><tr><td style="font-weight:bold;vertical-align:top;">cmd_args</td><td style="vertical-align:top;">:</td><td><div><table></table></div></td></tr><tr><td style="font-weight:bold;vertical-align:top;">cmd_options</td><td style="vertical-align:top;">:</td><td><div>&lt;Values at 0x353d120: {&#x27;verbose&#x27;: False, &#x27;ip&#x27;: &#x27;127.0.0.1&#x27;, &#x27;debuglevel&#x27;: 30, &#x27;with_scheduler&#x27;: False, &#x27;ips&#x27;: [&#x27;fe80::7c89:ab31:75:9941%14&#x27;, &#x27;192.168.0.2&#x27;, &#x27;fe80::25ba:7c74:208b:ebfd%11&#x27;, &#x27;10.0.0.100&#x27;], &#x27;shutdown_timeout&#x27;: 5, &#x27;taskbar&#x27;: False, &#x27;with_coverage&#x27;: False, &#x27;scheduler_groups&#x27;: None, &#x27;port&#x27;: 8000, &#x27;maxthreads&#x27;: None, &#x27;softcron&#x27;: False, &#x27;server_name&#x27;: &#x27;Thundera&#x27;, &#x27;bpython&#x27;: False, &#x27;nogui&#x27;: False, &#x27;pid_filename&#x27;: &#x27;httpserver.pid&#x27;, &#x27;extcron&#x27;: False, &#x27;runcron&#x27;: False, &#x27;run_system_tests&#x27;: False, &#x27;test&#x27;: None, &#x27;folder&#x27;: &#x27;D:\\\\web2py&#x27;, &#x27;config&#x27;: &#x27;&#x27;, &#x27;minthreads&#x27;: None, &#x27;shell&#x27;: None, &#x27;run&#x27;: &#x27;&#x27;, &#x27;log_filename&#x27;: &#x27;httpserver.log&#x27;, &#x27;profiler_dir&#x27;: None, &#x27;args&#x27;: [&#x27;&#x27;], &#x27;socket_timeout&#x27;: 5, &#x27;ssl_ca_certificate&#x27;: None, &#x27;scheduler&#x27;: None, &#x27;interfaces&#x27;: None, &#x27;ssl_private_key&#x27;: &#x27;&#x27;, &#x27;gae&#x27;: None, &#x27;password&#x27;: &#x27;&lt;ask&gt;&#x27;, &#x27;request_queue_size&#x27;: 5, &#x27;ssl_certificate&#x27;: &#x27;&#x27;, &#x27;cronjob&#x27;: False, &#x27;numthreads&#x27;: None, &#x27;quiet&#x27;: False, &#x27;import_models&#x27;: False, &#x27;timeout&#x27;: 10, &#x27;plain&#x27;: False, &#x27;nobanner&#x27;: False}&gt;</div></td></tr><tr><td style="font-weight:bold;vertical-align:top;">db_sessions</td><td style="vertical-align:top;">:</td><td><div>set([])</div></td></tr><tr><td style="font-weight:bold;vertical-align:top;">debugging</td><td style="vertical-align:top;">:</td><td><div>True</div></td></tr><tr><td style="font-weight:bold;vertical-align:top;">gluon_parent</td><td style="vertical-align:top;">:</td><td><div>D:\\web2py</div></td></tr><tr><td style="font-weight:bold;vertical-align:top;">is_jython</td><td style="vertical-align:top;">:</td><td><div>False</div></td></tr><tr><td style="font-weight:bold;vertical-align:top;">is_pypy</td><td style="vertical-align:top;">:</td><td><div>False</div></td></tr><tr><td style="font-weight:bold;vertical-align:top;">is_source</td><td style="vertical-align:top;">:</td><td><div>False</div></td></tr><tr><td style="font-weight:bold;vertical-align:top;">local_hosts</td><td style="vertical-align:top;">:</td><td><div><table><tr><td><div>fe80::25ba:7c74:208b:ebfd%11</div></td></tr><tr><td><div>Thundera</div></td></tr><tr><td><div>::ffff:127.0.0.1</div></td></tr><tr><td><div>::1</div></td></tr><tr><td><div>192.168.0.2</div></td></tr><tr><td><div>10.0.0.100</div></td></tr><tr><td><div>fe80::7c89:ab31:75:9941%14</div></td></tr><tr><td><div>127.0.0.1</div></td></tr></table></div></td></tr><tr><td style="font-weight:bold;vertical-align:top;">web2py_version</td><td style="vertical-align:top;">:</td><td><div>2.9.12-stable+timestamp.2015.02.15.23.04.25</div></td></tr></table></div></td></tr><tr><td style="font-weight:bold;vertical-align:top;">is_https</td><td style="vertical-align:top;">:</td><td><div>False</div></td></tr><tr><td style="font-weight:bold;vertical-align:top;">is_local</td><td style="vertical-align:top;">:</td><td><div>True</div></td></tr><tr><td style="font-weight:bold;vertical-align:top;">is_restful</td><td style="vertical-align:top;">:</td><td><div>False</div></td></tr><tr><td style="font-weight:bold;vertical-align:top;">is_sheduler</td><td style="vertical-align:top;">:</td><td><div>None</div></td></tr><tr><td style="font-weight:bold;vertical-align:top;">is_shell</td><td style="vertical-align:top;">:</td><td><div>None</div></td></tr><tr><td style="font-weight:bold;vertical-align:top;">now</td><td style="vertical-align:top;">:</td><td><div>datetime.datetime(2015, 3, 14, 21, 36, 10, 51000)</div></td></tr><tr><td style="font-weight:bold;vertical-align:top;">raw_args</td><td style="vertical-align:top;">:</td><td><div></div></td></tr><tr><td style="font-weight:bold;vertical-align:top;">raw_extension</td><td style="vertical-align:top;">:</td><td><div>None</div></td></tr><tr><td style="font-weight:bold;vertical-align:top;">url</td><td style="vertical-align:top;">:</td><td><div>/money/default/index</div></td></tr><tr><td style="font-weight:bold;vertical-align:top;">utcnow</td><td style="vertical-align:top;">:</td><td><div>datetime.datetime(2015, 3, 15, 0, 36, 10, 51000)</div></td></tr><tr><td style="font-weight:bold;vertical-align:top;">uuid</td><td style="vertical-align:top;">:</td><td><div>money/127.0.0.1.2015-03-14.21-36-10.8e2fe65c-473f-4ea0-a7f8-128c335efc8e</div></td></tr><tr><td style="font-weight:bold;vertical-align:top;">wsgi</td><td style="vertical-align:top;">:</td><td><div>&lt;gluon.main.LazyWSGI object at 0x03DCB5B0&gt;</div></td></tr></table></div>'
tRp58
sS'frames'
p59
(lp60
(dp61
S'file'
p62
S'D:\\web2py\\gluon\\restricted.py'
p63
sS'dump'
p64
(dp65
S'environment'
p66
S"{'A': <class 'gluon.html.A'>, 'ANY_OF': <class 'gluon.validators.ANY_OF'>, 'ASSIGNJS': <function ASSIGNJS>, 'Auth': <class 'gluon.tools.Auth'>, 'B': <class 'gluon.html.B'>, 'BEAUTIFY': <class 'gluon.html.BEAUTIFY'>, 'BODY': <class 'gluon.html.BODY'>, 'BR': <class 'gluon.html.BR'>, 'BUTTON': <class 'gluon.html.BUTTON'>, 'CAT': <class 'gluon.html.CAT'>, ...}"
p67
sS'ccode'
p68
S'<code object <module> at 03E78F50, file "D:\\web2...plications\\money\\controllers/default.py", line 3>'
p69
ssS'lnum'
p70
I224
sS'lines'
p71
(dp72
I224
S'        exec ccode in environment'
p73
sI225
S'    except HTTP:'
p74
sI226
S'        raise'
p75
sI227
S'    except RestrictedError:'
p76
sI228
S'        # do not encapsulate (obfuscate) the original RestrictedError'
p77
sI219
S'    try:'
p78
sI220
S'        if isinstance(code, types.CodeType):'
p79
sI221
S'            ccode = code'
p80
sI222
S'        else:'
p81
sI223
S'            ccode = compile2(code, layer)'
p82
ssS'call'
p83
S"(code='# -*- coding: utf-8 -*-\\n# this file is released ...e,rules)\\n\\nresponse._vars=response._caller(index)\\n', environment={'A': <class 'gluon.html.A'>, 'ANY_OF': <class 'gluon.validators.ANY_OF'>, 'ASSIGNJS': <function ASSIGNJS>, 'Auth': <class 'gluon.tools.Auth'>, 'B': <class 'gluon.html.B'>, 'BEAUTIFY': <class 'gluon.html.BEAUTIFY'>, 'BODY': <class 'gluon.html.BODY'>, 'BR': <class 'gluon.html.BR'>, 'BUTTON': <class 'gluon.html.BUTTON'>, 'CAT': <class 'gluon.html.CAT'>, ...}, layer=r'D:\\web2py\\applications\\money\\controllers/default.py')"
p84
sS'func'
p85
S'restricted'
p86
sa(dp87
g62
S'D:\\web2py\\applications\\money\\controllers\\default.py'
p88
sg64
(dp89
sg70
I297
sg71
(dp90
I288
S'    this is example of API with access control'
p91
sI289
S'    WEB2PY provides Hypermedia API (Collection+JSON) Experimental'
p92
sI290
S'    """'
p93
sI291
S'    from gluon.contrib.hypermedia import Collection'
p94
sI292
S'    rules = {'
p95
sI293
S"        '<tablename>': {'GET':{},'POST':{},'PUT':{},'DELETE':{}},"
p96
sI294
S'        }'
p97
sI295
S'    return Collection(db).process(request,response,rules)'
p98
sI286
S'def api():'
p99
sI287
S'    """'
p100
ssg83
S'()'
p101
sg85
S'<module>'
p102
sa(dp103
g62
S'D:\\web2py\\gluon\\globals.py'
p104
sg64
(dp105
S'self'
p106
S'undefined'
p107
sS'f'
S'<function index>'
p108
ssg70
I393
sg71
(dp109
I388
S"        self.flash = ''            # used by the default view layout"
p110
sI389
S'        self.meta = Storage()      # used by web2py_ajax.html'
p111
sI390
S'        self.menu = []             # used by the default view layout'
p112
sI391
S'        self.files = []            # used by web2py_ajax.html'
p113
sI392
S'        self._vars = None'
p114
sI393
S'        self._caller = lambda f: f()'
p115
sI394
S'        self._view_environment = None'
p116
sI395
S'        self._custom_commit = None'
p117
sI396
S'        self._custom_rollback = None'
p118
sI397
S"        self.generic_patterns = ['*']"
p119
ssg83
S'(f=<function index>)'
p120
sg85
S'<lambda>'
p121
sa(dp122
g62
S'D:\\web2py\\gluon\\tools.py'
p123
sg64
(dp124
S'action'
p125
S'<function index>'
p126
sS'a'
S'()'
p127
sS'b'
g45
ssg70
I3449
sg71
(dp128
I3444
S'                    flag = condition'
p129
sI3445
S'                if not flag:'
p130
sI3446
S'                    current.session.flash = self.messages.access_denied'
p131
sI3447
S'                    return call_or_redirect('
p132
sI3448
S'                        self.settings.on_failed_authorization)'
p133
sI3449
S'                return action(*a, **b)'
p134
sI3450
S'            f.__doc__ = action.__doc__'
p135
sI3451
S'            f.__name__ = action.__name__'
p136
sI3452
S'            f.__dict__.update(action.__dict__)'
p137
sI3453
S'            return f'
p138
ssg83
S'(*a=(), **b={})'
p139
sg85
S'f'
sa(dp140
g62
S'D:\\web2py\\applications\\money\\controllers\\default.py'
p141
sg64
(dp142
S'e_payment'
p143
S"'Dinheiro'"
p144
ssg70
I50
sg71
(dp145
I45
S'            e_month=e_month,'
p146
sI46
S'            e_data=e_data,'
p147
sI47
S'            e_description=e_description,'
p148
sI48
S'            e_type=e_type,'
p149
sI49
S'            e_value=e_value,'
p150
sI50
S'            e_payment=e_payment,'
p151
sI51
S'        )'
p152
sI52
S'    try:'
p153
sI53
S'        expenses = db(db.expenses.e_year == cur_year)(db.expenses.e_month == cur_month).select(db.expenses.ALL)'
p154
sI54
S"        money_list = db(db.expenses.e_year == cur_year)(db.expenses.e_month == cur_month)(db.expenses.e_payment == 'Dinheiro').select(db.expenses.e_value)"
p155
ssg83
S'()'
p156
sg85
S'index'
p157
sa(dp158
g62
S'D:\\web2py\\gluon\\packages\\dal\\pydal\\objects.py'
p159
sg64
(dp160
S'self._listify'
p161
S'<bound method Table._listify of <Table expenses ...e_description,e_type,e_value,e_payment,e_quant)>>'
p162
sS'fields'
p163
S"{'e_data': '2015-03-14', 'e_description': 'Guarim', 'e_month': '03', 'e_owner': <Rows (0)>, 'e_payment': 'Dinheiro', 'e_quant': 1, 'e_type': 'Almo\\xc3\\xa7o', 'e_value': '100.00', 'e_year': '2015'}"
p164
sS'self'
p165
S'<Table expenses (id,e_owner,e_year,e_month,e_day...,e_description,e_type,e_value,e_payment,e_quant)>'
p166
sS'ret'
p167
g107
sS'self._db._adapter'
p168
S'<pydal.adapters.sqlite.SQLiteAdapter object>'
p169
sS'self._db._adapter.insert'
p170
S'<bound method SQLiteAdapter.insert of <pydal.adapters.sqlite.SQLiteAdapter object>>'
p171
sS'self._db'
p172
S'<DAL uri="sqlite://storage.sqlite">'
p173
ssg70
I737
sg71
(dp174
I736
S'        if any(f(fields) for f in self._before_insert): return 0'
p175
sI737
S'        ret =  self._db._adapter.insert(self, self._listify(fields))'
p176
sI738
S'        if ret and self._after_insert:'
p177
sI739
S'            fields = Row(fields)'
p178
sI740
S'            [f(fields,ret) for f in self._after_insert]'
p179
sI741
S'        return ret'
p180
sI732
S''
sI733
S'    def insert(self, **fields):'
p181
sI734
S'        fields = self._defaults(fields)'
p182
sI735
S'        self._attempt_upload(fields)'
p183
ssg83
S"(self=<Table expenses (id,e_owner,e_year,e_month,e_day...,e_description,e_type,e_value,e_payment,e_quant)>, **fields={'e_data': '2015-03-14', 'e_description': 'Guarim', 'e_month': '03', 'e_owner': <Rows (0)>, 'e_payment': 'Dinheiro', 'e_quant': 1, 'e_type': 'Almo\\xc3\\xa7o', 'e_value': '100.00', 'e_year': '2015'})"
p184
sg85
S'insert'
p185
sa(dp186
g62
S'D:\\web2py\\gluon\\packages\\dal\\pydal\\adapters\\base.py'
p187
sg64
(dp188
S'self._insert'
p189
S'<bound method SQLiteAdapter._insert of <pydal.adapters.sqlite.SQLiteAdapter object>>'
p190
sS'query'
p191
g107
sS'self'
p192
S'<pydal.adapters.sqlite.SQLiteAdapter object>'
p193
sS'fields'
p194
S"[(<pydal.objects.Field object>, 'Dinheiro'), (<pydal.objects.Field object>, '2015'), (<pydal.objects.Field object>, 1), (<pydal.objects.Field object>, <Rows (0)>), (<pydal.objects.Field object>, 'Almo\\xc3\\xa7o'), (<pydal.objects.Field object>, 'Guarim'), (<pydal.objects.Field object>, '2015-03-14'), (<pydal.objects.Field object>, '100.00'), (<pydal.objects.Field object>, '03')]"
p195
sS'table'
p196
S'<Table expenses (id,e_owner,e_year,e_month,e_day...,e_description,e_type,e_value,e_payment,e_quant)>'
p197
ssg70
I712
sg71
(dp198
I707
S''
sI708
S'    def _insert_empty(self, table):'
p199
sI709
S"        return 'INSERT INTO %s DEFAULT VALUES;' % (table.sqlsafe)"
p200
sI710
S''
sI711
S'    def insert(self, table, fields):'
p201
sI712
S'        query = self._insert(table,fields)'
p202
sI713
S'        try:'
p203
sI714
S'            self.execute(query)'
p204
sI715
S'        except Exception:'
p205
sI716
S'            e = sys.exc_info()[1]'
p206
ssg83
S"(self=<pydal.adapters.sqlite.SQLiteAdapter object>, table=<Table expenses (id,e_owner,e_year,e_month,e_day...,e_description,e_type,e_value,e_payment,e_quant)>, fields=[(<pydal.objects.Field object>, 'Dinheiro'), (<pydal.objects.Field object>, '2015'), (<pydal.objects.Field object>, 1), (<pydal.objects.Field object>, <Rows (0)>), (<pydal.objects.Field object>, 'Almo\\xc3\\xa7o'), (<pydal.objects.Field object>, 'Guarim'), (<pydal.objects.Field object>, '2015-03-14'), (<pydal.objects.Field object>, '100.00'), (<pydal.objects.Field object>, '03')])"
p207
sg85
g185
sa(dp208
g62
S'D:\\web2py\\gluon\\packages\\dal\\pydal\\adapters\\base.py'
p209
sg64
(dp210
S'f'
g107
sS'fields'
p211
S"[(<pydal.objects.Field object>, 'Dinheiro'), (<pydal.objects.Field object>, '2015'), (<pydal.objects.Field object>, 1), (<pydal.objects.Field object>, <Rows (0)>), (<pydal.objects.Field object>, 'Almo\\xc3\\xa7o'), (<pydal.objects.Field object>, 'Guarim'), (<pydal.objects.Field object>, '2015-03-14'), (<pydal.objects.Field object>, '100.00'), (<pydal.objects.Field object>, '03')]"
p212
sS'self'
p213
S'<pydal.adapters.sqlite.SQLiteAdapter object>'
p214
sS'values'
p215
g107
sS'v'
g107
sS'self.expand'
p216
S'<bound method SQLiteAdapter.expand of <pydal.adapters.sqlite.SQLiteAdapter object>>'
p217
ssg70
I703
sg71
(dp218
I704
S"            return 'INSERT INTO %s(%s) VALUES (%s);' % (table_rname, keys, values)"
p219
sI705
S'        else:'
p220
sI706
S'            return self._insert_empty(table)'
p221
sI707
S''
sI698
S''
sI699
S'    def _insert(self, table, fields):'
p222
sI700
S'        table_rname = table.sqlsafe'
p223
sI701
S'        if fields:'
p224
sI702
S"            keys = ','.join(f.sqlsafe_name for f, v in fields)"
p225
sI703
S"            values = ','.join(self.expand(v, f.type) for f, v in fields)"
p226
ssg83
S"(self=<pydal.adapters.sqlite.SQLiteAdapter object>, table=<Table expenses (id,e_owner,e_year,e_month,e_day...,e_description,e_type,e_value,e_payment,e_quant)>, fields=[(<pydal.objects.Field object>, 'Dinheiro'), (<pydal.objects.Field object>, '2015'), (<pydal.objects.Field object>, 1), (<pydal.objects.Field object>, <Rows (0)>), (<pydal.objects.Field object>, 'Almo\\xc3\\xa7o'), (<pydal.objects.Field object>, 'Guarim'), (<pydal.objects.Field object>, '2015-03-14'), (<pydal.objects.Field object>, '100.00'), (<pydal.objects.Field object>, '03')])"
p227
sg85
S'_insert'
p228
sa(dp229
g62
S'D:\\web2py\\gluon\\packages\\dal\\pydal\\adapters\\base.py'
p230
sg64
(dp231
S'f'
S'<pydal.objects.Field object>'
p232
sS'fields'
p233
g107
sS'self'
p234
S'<pydal.adapters.sqlite.SQLiteAdapter object>'
p235
sS'f.type'
p236
S"'reference auth_user'"
p237
sS'values'
p238
g107
sS'v'
S'<Rows (0)>'
p239
sS'self.expand'
p240
S'<bound method SQLiteAdapter.expand of <pydal.adapters.sqlite.SQLiteAdapter object>>'
p241
ssg70
I703
sg71
(dp242
I704
S"            return 'INSERT INTO %s(%s) VALUES (%s);' % (table_rname, keys, values)"
p243
sI705
S'        else:'
p244
sI706
S'            return self._insert_empty(table)'
p245
sI707
S''
sI698
S''
sI699
S'    def _insert(self, table, fields):'
p246
sI700
S'        table_rname = table.sqlsafe'
p247
sI701
S'        if fields:'
p248
sI702
S"            keys = ','.join(f.sqlsafe_name for f, v in fields)"
p249
sI703
S"            values = ','.join(self.expand(v, f.type) for f, v in fields)"
p250
ssg83
S'((f=<pydal.objects.Field object>, v=<Rows (0)>))'
p251
sg85
S'<genexpr>'
p252
sa(dp253
g62
S'D:\\web2py\\gluon\\packages\\dal\\pydal\\adapters\\base.py'
p254
sg64
(dp255
S'builtinstr'
p256
S"<type 'str'>"
p257
sS'field_type'
p258
S"'reference auth_user'"
p259
sS'self'
p260
S'<pydal.adapters.sqlite.SQLiteAdapter object>'
p261
sS'expression'
p262
S'<Rows (0)>'
p263
sS'self.represent'
p264
S'<bound method SQLiteAdapter.represent of <pydal.adapters.sqlite.SQLiteAdapter object>>'
p265
ssg70
I912
sg71
(dp266
I907
S"                out = '(%s)' % op"
p267
sI908
S'            else:'
p268
sI909
S'                out = op()'
p269
sI910
S'            return out'
p270
sI911
S'        elif field_type:'
p271
sI912
S'            return str(self.represent(expression,field_type))'
p272
sI913
S'        elif isinstance(expression,(list,tuple)):'
p273
sI914
S"            return ','.join(self.represent(item,field_type) \\"
p274
sI915
S'                                for item in expression)'
p275
sI916
S'        elif isinstance(expression, bool):'
p276
ssg83
S"(self=<pydal.adapters.sqlite.SQLiteAdapter object>, expression=<Rows (0)>, field_type='reference auth_user', colnames=False)"
p277
sg85
S'expand'
p278
sa(dp279
g62
S'D:\\web2py\\gluon\\packages\\dal\\pydal\\adapters\\base.py'
p280
sg64
(dp281
S'builtinstr'
p282
S"<type 'str'>"
p283
sS'builtinlong'
p284
S"<type 'long'>"
p285
sS'obj'
p286
S'<Rows (0)>'
p287
ssg70
I1363
sg71
(dp288
I1358
S'            return str(obj)'
p289
sI1359
S"        elif field_is_type('reference'): # reference"
p290
sI1360
S'            # check for tablename first'
p291
sI1361
S'            referenced = fieldtype[9:].strip()'
p292
sI1362
S'            if referenced in self.db.tables:'
p293
sI1363
S'                return str(long(obj))'
p294
sI1364
S"            p = referenced.partition('.')"
p295
sI1365
S"            if p[2] != '':"
p296
sI1366
S'                try:'
p297
sI1367
S'                    ftype = self.db[p[0]][p[2]].type'
p298
ssg83
S"(self=<pydal.adapters.sqlite.SQLiteAdapter object>, obj=<Rows (0)>, fieldtype='reference auth_user')"
p299
sg85
S'represent'
p300
sasS'pyver'
p301
S'Python 2.7.9: D:\\web2py\\web2py.exe (prefix: C:\\Python27)'
p302
sS'session'
p303
g57
(S's\x97\n\x00\x00<div><table><tr><td style="font-weight:bold;vertical-align:top;">auth</td><td style="vertical-align:top;">:</td><td><div><table><tr><td style="font-weight:bold;vertical-align:top;">expiration</td><td style="vertical-align:top;">:</td><td><div>3600</div></td></tr><tr><td style="font-weight:bold;vertical-align:top;">hmac_key</td><td style="vertical-align:top;">:</td><td><div>1fd843fc-d628-4bea-a4b8-d0b71c6bad21</div></td></tr><tr><td style="font-weight:bold;vertical-align:top;">last_visit</td><td style="vertical-align:top;">:</td><td><div>datetime.datetime(2015, 3, 14, 21, 30, 18, 174000)</div></td></tr><tr><td style="font-weight:bold;vertical-align:top;">remember_me</td><td style="vertical-align:top;">:</td><td><div>False</div></td></tr><tr><td style="font-weight:bold;vertical-align:top;">user</td><td style="vertical-align:top;">:</td><td><div><table><tr><td style="font-weight:bold;vertical-align:top;">email</td><td style="vertical-align:top;">:</td><td><div>renato@renato.com</div></td></tr><tr><td style="font-weight:bold;vertical-align:top;">first_name</td><td style="vertical-align:top;">:</td><td><div>Renato</div></td></tr><tr><td style="font-weight:bold;vertical-align:top;">id</td><td style="vertical-align:top;">:</td><td><div>1L</div></td></tr><tr><td style="font-weight:bold;vertical-align:top;">last_name</td><td style="vertical-align:top;">:</td><td><div>Morais</div></td></tr><tr><td style="font-weight:bold;vertical-align:top;">registration_id</td><td style="vertical-align:top;">:</td><td><div>renato</div></td></tr><tr><td style="font-weight:bold;vertical-align:top;">registration_key</td><td style="vertical-align:top;">:</td><td><div></div></td></tr><tr><td style="font-weight:bold;vertical-align:top;">reset_password_key</td><td style="vertical-align:top;">:</td><td><div></div></td></tr><tr><td style="font-weight:bold;vertical-align:top;">username</td><td style="vertical-align:top;">:</td><td><div>renato</div></td></tr></table></div></td></tr><tr><td style="font-weight:bold;vertical-align:top;">user_groups</td><td style="vertical-align:top;">:</td><td><div><table><tr><td style="font-weight:bold;vertical-align:top;">1</td><td style="vertical-align:top;">:</td><td><div>manager</div></td></tr></table></div></td></tr></table></div></td></tr><tr><td style="font-weight:bold;vertical-align:top;">flash</td><td style="vertical-align:top;">:</td><td><div>None</div></td></tr><tr><td style="font-weight:bold;vertical-align:top;">last_orderby</td><td style="vertical-align:top;">:</td><td><div>None</div></td></tr><tr><td style="font-weight:bold;vertical-align:top;">last_query</td><td style="vertical-align:top;">:</td><td><div>db.expenses.id&gt;0</div></td></tr></table></div>'
tRp304
sS'etype'
p305
S"<type 'exceptions.TypeError'>"
p306
sS'date'
p307
S'Sat Mar 14 21:36:10 2015'
p308
sS'response'
p309
g57
(S'sg2\x00\x00<div><table><tr><td style="font-weight:bold;vertical-align:top;">body</td><td style="vertical-align:top;">:</td><td><div>&lt;cStringIO.StringO object at 0x075D66C0&gt;</div></td></tr><tr><td style="font-weight:bold;vertical-align:top;">cookies</td><td style="vertical-align:top;">:</td><td><div><table><tr><td style="font-weight:bold;vertical-align:top;">session_id_money</td><td style="vertical-align:top;">:</td><td><div>127.0.0.1-ae049fcb-2a51-466f-bfe7-4a6ed18001bc<table><tr><td style="font-weight:bold;vertical-align:top;">comment</td><td style="vertical-align:top;">:</td><td><div></div></td></tr><tr><td style="font-weight:bold;vertical-align:top;">domain</td><td style="vertical-align:top;">:</td><td><div></div></td></tr><tr><td style="font-weight:bold;vertical-align:top;">expires</td><td style="vertical-align:top;">:</td><td><div></div></td></tr><tr><td style="font-weight:bold;vertical-align:top;">httponly</td><td style="vertical-align:top;">:</td><td><div></div></td></tr><tr><td style="font-weight:bold;vertical-align:top;">max-age</td><td style="vertical-align:top;">:</td><td><div></div></td></tr><tr><td style="font-weight:bold;vertical-align:top;">path</td><td style="vertical-align:top;">:</td><td><div>/</div></td></tr><tr><td style="font-weight:bold;vertical-align:top;">secure</td><td style="vertical-align:top;">:</td><td><div></div></td></tr><tr><td style="font-weight:bold;vertical-align:top;">version</td><td style="vertical-align:top;">:</td><td><div></div></td></tr></table></div></td></tr></table></div></td></tr><tr><td style="font-weight:bold;vertical-align:top;">delimiters</td><td style="vertical-align:top;">:</td><td><div><table><tr><td><div>{{</div></td></tr><tr><td><div>}}</div></td></tr></table></div></td></tr><tr><td style="font-weight:bold;vertical-align:top;">files</td><td style="vertical-align:top;">:</td><td><div><table></table></div></td></tr><tr><td style="font-weight:bold;vertical-align:top;">flash</td><td style="vertical-align:top;">:</td><td><div></div></td></tr><tr><td style="font-weight:bold;vertical-align:top;">form_label_separator</td><td style="vertical-align:top;">:</td><td><div>: </div></td></tr><tr><td style="font-weight:bold;vertical-align:top;">formstyle</td><td style="vertical-align:top;">:</td><td><div>table3cols</div></td></tr><tr><td style="font-weight:bold;vertical-align:top;">generic_patterns</td><td style="vertical-align:top;">:</td><td><div><table><tr><td><div>*</div></td></tr></table></div></td></tr><tr><td style="font-weight:bold;vertical-align:top;">google_analytics_id</td><td style="vertical-align:top;">:</td><td><div>None</div></td></tr><tr><td style="font-weight:bold;vertical-align:top;">headers</td><td style="vertical-align:top;">:</td><td><div><table><tr><td style="font-weight:bold;vertical-align:top;">X-Powered-By</td><td style="vertical-align:top;">:</td><td><div>web2py</div></td></tr></table></div></td></tr><tr><td style="font-weight:bold;vertical-align:top;">logo</td><td style="vertical-align:top;">:</td><td><div><a class="brand" href="http://www.web2py.com/"><b>web<span>2</span>py</b>&trade;&nbsp;</a></div></td></tr><tr><td style="font-weight:bold;vertical-align:top;">menu</td><td style="vertical-align:top;">:</td><td><div><table><tr><td><div><table><tr><td><div>Principal</div></td></tr><tr><td><div>False</div></td></tr><tr><td><div>/money/default/index</div></td></tr><tr><td><div><table></table></div></td></tr></table></div></td></tr><tr><td><div><table><tr><td><div><span class="highlighted">web2py</span></div></td></tr><tr><td><div>False</div></td></tr><tr><td><div>http://web2py.com</div></td></tr><tr><td><div><table><tr><td><div><table><tr><td><div>Meus sites</div></td></tr><tr><td><div>False</div></td></tr><tr><td><div>/admin/default/site</div></td></tr></table></div></td></tr><tr><td><div><table><tr><td><div>Esta aplica\xc3\xa7\xc3\xa3o</div></td></tr><tr><td><div>False</div></td></tr><tr><td><div>/admin/default/design/money</div></td></tr><tr><td><div>[(&lt;lazyT &#x27;Controller&#x27;&gt;, False, &#x27;/admin/default/edit/money/controllers/default.py&#x27;), (&lt;lazyT &#x27;View&#x27;&gt;, False, &#x27;/admin/default/edit/money/views/default/index.html&#x27;), (&lt;lazyT &#x27;Layout&#x27;&gt;, False, &#x27;/admin/default/edit/money/views/layout.html&#x27;), (&lt;lazyT &#x27;Stylesheet&#x27;&gt;, False, &#x27;/admin/default/edit/money/static/css/web2py.css&#x27;), (&lt;lazyT &#x27;DB Model&#x27;&gt;, False, &#x27;/admin/default/edit/money/models/db.py&#x27;), (&lt;lazyT &#x27;Menu Model&#x27;&gt;, False, &#x27;/admin/default/edit/money/models/menu.py&#x27;), (&lt;lazyT &#x27;Database&#x27;&gt;, False, &#x27;/money/appadmin/index&#x27;), (&lt;lazyT &#x27;Errors&#x27;&gt;, False, &#x27;/admin/default/errors/money&#x27;), (&lt;lazyT &#x27;About&#x27;&gt;, False, &#x27;/admin/default/about/money&#x27;)]</div></td></tr></table></div></td></tr><tr><td><div><table><tr><td><div>web2py.com</div></td></tr><tr><td><div>False</div></td></tr><tr><td><div>http://www.web2py.com</div></td></tr><tr><td><div>[(&lt;lazyT &#x27;Download&#x27;&gt;, False, &#x27;http://www.web2py.com/examples/default/download&#x27;), (&lt;lazyT &#x27;Support&#x27;&gt;, False, &#x27;http://www.web2py.com/examples/default/support&#x27;), (&lt;lazyT &#x27;Demo&#x27;&gt;, False, &#x27;http://web2py.com/demo_admin&#x27;), (&lt;lazyT &#x27;Quick Examples&#x27;&gt;, False, &#x27;http://web2py.com/examples/default/examples&#x27;), (&lt;lazyT &#x27;FAQ&#x27;&gt;, False, &#x27;http://web2py.com/AlterEgo&#x27;), (&lt;lazyT &#x27;Videos&#x27;&gt;, False, &#x27;http://www.web2py.com/examples/default/videos/&#x27;), (&lt;lazyT &#x27;Free Applications&#x27;&gt;, False, &#x27;http://web2py.com/appliances&#x27;), (&lt;lazyT &#x27;Plugins&#x27;&gt;, False, &#x27;http://web2py.com/plugins&#x27;), (&lt;lazyT &#x27;Layouts&#x27;&gt;, False, &#x27;http://web2py.com/layouts&#x27;), (&lt;lazyT &#x27;Recipes&#x27;&gt;, False, &#x27;http://web2pyslices.com/&#x27;), (&lt;lazyT &#x27;Semantic&#x27;&gt;, False, &#x27;http://web2py.com/semantic&#x27;)]</div></td></tr></table></div></td></tr><tr><td><div><table><tr><td><div>Documenta\xc3\xa7\xc3\xa3o</div></td></tr><tr><td><div>False</div></td></tr><tr><td><div>http://www.web2py.com/book</div></td></tr><tr><td><div>[(&lt;lazyT &#x27;Preface&#x27;&gt;, False, &#x27;http://www.web2py.com/book/default/chapter/00&#x27;), (&lt;lazyT &#x27;Introduction&#x27;&gt;, False, &#x27;http://www.web2py.com/book/default/chapter/01&#x27;), (&lt;lazyT &#x27;Python&#x27;&gt;, False, &#x27;http://www.web2py.com/book/default/chapter/02&#x27;), (&lt;lazyT &#x27;Overview&#x27;&gt;, False, &#x27;http://www.web2py.com/book/default/chapter/03&#x27;), (&lt;lazyT &#x27;The Core&#x27;&gt;, False, &#x27;http://www.web2py.com/book/default/chapter/04&#x27;), (&lt;lazyT &#x27;The Views&#x27;&gt;, False, &#x27;http://www.web2py.com/book/default/chapter/05&#x27;), (&lt;lazyT &#x27;Database&#x27;&gt;, False, &#x27;http://www.web2py.com/book/default/chapter/06&#x27;), (&lt;lazyT &#x27;Forms and Validators&#x27;&gt;, False, &#x27;http://www.web2py.com/book/default/chapter/07&#x27;), (&lt;lazyT &#x27;Email and SMS&#x27;&gt;, False, &#x27;http://www.web2py.com/book/default/chapter/08&#x27;), (&lt;lazyT &#x27;Access Control&#x27;&gt;, False, &#x27;http://www.web2py.com/book/default/chapter/09&#x27;), (&lt;lazyT &#x27;Services&#x27;&gt;, False, &#x27;http://www.web2py.com/book/default/chapter/10&#x27;), (&lt;lazyT &#x27;Ajax Recipes&#x27;&gt;, False, &#x27;http://www.web2py.com/book/default/chapter/11&#x27;), (&lt;lazyT &#x27;Components and Plugins&#x27;&gt;, False, &#x27;http://www.web2py.com/book/default/chapter/12&#x27;), (&lt;lazyT &#x27;Deployment Recipes&#x27;&gt;, False, &#x27;http://www.web2py.com/book/default/chapter/13&#x27;), (&lt;lazyT &#x27;Other Recipes&#x27;&gt;, False, &#x27;http://www.web2py.com/book/default/chapter/14&#x27;), (&lt;lazyT &#x27;Buy this book&#x27;&gt;, False, &#x27;http://stores.lulu.com/web2py&#x27;)]</div></td></tr></table></div></td></tr><tr><td><div><table><tr><td><div>Comunidade</div></td></tr><tr><td><div>False</div></td></tr><tr><td><div>None</div></td></tr><tr><td><div>[(&lt;lazyT &#x27;Groups&#x27;&gt;, False, &#x27;http://www.web2py.com/examples/default/usergroups&#x27;), (&lt;lazyT &#x27;Twitter&#x27;&gt;, False, &#x27;http://twitter.com/web2py&#x27;), (&lt;lazyT &#x27;Live Chat&#x27;&gt;, False, &#x27;http://webchat.freenode.net/?channels=web2py&#x27;)]</div></td></tr></table></div></td></tr><tr><td><div><table><tr><td><div>Plugins</div></td></tr><tr><td><div>False</div></td></tr><tr><td><div>None</div></td></tr><tr><td><div>[(&#x27;plugin_wiki&#x27;, False, &#x27;http://web2py.com/examples/default/download&#x27;), (&lt;lazyT &#x27;Other Plugins&#x27;&gt;, False, &#x27;http://web2py.com/plugins&#x27;), (&lt;lazyT &#x27;Layout Plugins&#x27;&gt;, False, &#x27;http://web2py.com/layouts&#x27;)]</div></td></tr></table></div></td></tr></table></div></td></tr></table></div></td></tr></table></div></td></tr><tr><td style="font-weight:bold;vertical-align:top;">meta</td><td style="vertical-align:top;">:</td><td><div><table><tr><td style="font-weight:bold;vertical-align:top;">author</td><td style="vertical-align:top;">:</td><td><div>Your Name &lt;you@example.com&gt;</div></td></tr><tr><td style="font-weight:bold;vertical-align:top;">generator</td><td style="vertical-align:top;">:</td><td><div>Web2py Web Framework</div></td></tr><tr><td style="font-weight:bold;vertical-align:top;">keywords</td><td style="vertical-align:top;">:</td><td><div>web2py, python, framework</div></td></tr></table></div></td></tr><tr><td style="font-weight:bold;vertical-align:top;">models_to_run</td><td style="vertical-align:top;">:</td><td><div><table><tr><td><div>^\\w+\\.py$</div></td></tr><tr><td><div>^default/\\w+\\.py$</div></td></tr><tr><td><div>^default/index/\\w+\\.py$</div></td></tr></table></div></td></tr><tr><td style="font-weight:bold;vertical-align:top;">postprocessing</td><td style="vertical-align:top;">:</td><td><div><table></table></div></td></tr><tr><td style="font-weight:bold;vertical-align:top;">session_client</td><td style="vertical-align:top;">:</td><td><div>127.0.0.1</div></td></tr><tr><td style="font-weight:bold;vertical-align:top;">session_cookie_compression_level</td><td style="vertical-align:top;">:</td><td><div>None</div></td></tr><tr><td style="font-weight:bold;vertical-align:top;">session_cookie_expires</td><td style="vertical-align:top;">:</td><td><div>None</div></td></tr><tr><td style="font-weight:bold;vertical-align:top;">session_cookie_key</td><td style="vertical-align:top;">:</td><td><div>None</div></td></tr><tr><td style="font-weight:bold;vertical-align:top;">session_data_name</td><td style="vertical-align:top;">:</td><td><div>session_data_money</div></td></tr><tr><td style="font-weight:bold;vertical-align:top;">session_file</td><td style="vertical-align:top;">:</td><td><div>&lt;open file &#x27;D:\\\\web2py\\\\applications\\\\money\\\\sessions\\\\10b\\\\1ee\\\\127.0.0.1-ae049fcb-2a51-466f-bfe7-4a6ed18001bc&#x27;, mode &#x27;rb+&#x27; at 0x03E657B0&gt;</div></td></tr><tr><td style="font-weight:bold;vertical-align:top;">session_filename</td><td style="vertical-align:top;">:</td><td><div>D:\\web2py\\applications\\money\\sessions\\127.0.0.1-ae049fcb-2a51-466f-bfe7-4a6ed18001bc</div></td></tr><tr><td style="font-weight:bold;vertical-align:top;">session_hash</td><td style="vertical-align:top;">:</td><td><div>5faf7dbb73df1cfffa9ee69ee12dfea5</div></td></tr><tr><td style="font-weight:bold;vertical-align:top;">session_id</td><td style="vertical-align:top;">:</td><td><div>127.0.0.1-ae049fcb-2a51-466f-bfe7-4a6ed18001bc</div></td></tr><tr><td style="font-weight:bold;vertical-align:top;">session_id_name</td><td style="vertical-align:top;">:</td><td><div>session_id_money</div></td></tr><tr><td style="font-weight:bold;vertical-align:top;">session_locked</td><td style="vertical-align:top;">:</td><td><div>True</div></td></tr><tr><td style="font-weight:bold;vertical-align:top;">session_masterapp</td><td style="vertical-align:top;">:</td><td><div>money</div></td></tr><tr><td style="font-weight:bold;vertical-align:top;">session_new</td><td style="vertical-align:top;">:</td><td><div>False</div></td></tr><tr><td style="font-weight:bold;vertical-align:top;">session_storage_type</td><td style="vertical-align:top;">:</td><td><div>file</div></td></tr><tr><td style="font-weight:bold;vertical-align:top;">status</td><td style="vertical-align:top;">:</td><td><div>200</div></td></tr><tr><td style="font-weight:bold;vertical-align:top;">subtitle</td><td style="vertical-align:top;">:</td><td><div></div></td></tr><tr><td style="font-weight:bold;vertical-align:top;">title</td><td style="vertical-align:top;">:</td><td><div>Money</div></td></tr><tr><td style="font-weight:bold;vertical-align:top;">view</td><td style="vertical-align:top;">:</td><td><div>default/index.html</div></td></tr></table></div>'
tRp310
sS'locals'
p311
(dp312
S'referenced'
p313
S"'auth_user'"
p314
sS'obj'
p315
S'<Rows (0)>'
p316
sS'self'
p317
S'<pydal.adapters.sqlite.SQLiteAdapter object>'
p318
sS'r'
S'None'
p319
sS'fieldtype'
p320
S"'reference auth_user'"
p321
sS'field_is_type'
p322
S'<built-in method startswith of str object>'
p323
sssS'traceback'
p324
S'Traceback (most recent call last):\n  File "D:\\web2py\\gluon\\restricted.py", line 224, in restricted\n    exec ccode in environment\n  File "D:\\web2py\\applications\\money\\controllers/default.py", line 297, in <module>\n  File "D:\\web2py\\gluon\\globals.py", line 393, in <lambda>\n    self._caller = lambda f: f()\n  File "D:\\web2py\\gluon\\tools.py", line 3449, in f\n    return action(*a, **b)\n  File "D:\\web2py\\applications\\money\\controllers/default.py", line 50, in index\n    e_payment=e_payment,\n  File "D:\\web2py\\gluon\\packages\\dal\\pydal\\objects.py", line 737, in insert\n    ret =  self._db._adapter.insert(self, self._listify(fields))\n  File "D:\\web2py\\gluon\\packages\\dal\\pydal\\adapters\\base.py", line 712, in insert\n    query = self._insert(table,fields)\n  File "D:\\web2py\\gluon\\packages\\dal\\pydal\\adapters\\base.py", line 703, in _insert\n    values = \',\'.join(self.expand(v, f.type) for f, v in fields)\n  File "D:\\web2py\\gluon\\packages\\dal\\pydal\\adapters\\base.py", line 703, in <genexpr>\n    values = \',\'.join(self.expand(v, f.type) for f, v in fields)\n  File "D:\\web2py\\gluon\\packages\\dal\\pydal\\adapters\\base.py", line 912, in expand\n    return str(self.represent(expression,field_type))\n  File "D:\\web2py\\gluon\\packages\\dal\\pydal\\adapters\\base.py", line 1363, in represent\n    return str(long(obj))\nTypeError: long() argument must be a string or a number, not \'Rows\'\n'
p325
s.