(dp1
S'output'
p2
S"<type 'exceptions.KeyError'> 'account'"
p3
sS'layer'
p4
S'C:\\Users\\suporte_renato\\Downloads\\web2py\\applications\\money\\views\\default/expenses.html'
p5
sS'code'
p6
S'response.write(\'<!--[if HTML5]><![endif]-->\\r\\n<!DOCTYPE html>\\r\\n<!-- paulirish.com/2008/conditional-stylesheets-vs-css-hacks-answer-neither/ -->\\r\\n<!--[if lt IE 7]><html class="ie ie6 ie-lte9 ie-lte8 ie-lte7 no-js" lang="\', escape=False)\nresponse.write(T.accepted_language or \'en\')\nresponse.write(\'"> <![endif]-->\\r\\n<!--[if IE 7]><html class="ie ie7 ie-lte9 ie-lte8 ie-lte7 no-js" lang="\', escape=False)\nresponse.write(T.accepted_language or \'en\')\nresponse.write(\'"> <![endif]-->\\r\\n<!--[if IE 8]><html class="ie ie8 ie-lte9 ie-lte8 no-js" lang="\', escape=False)\nresponse.write(T.accepted_language or \'en\')\nresponse.write(\'"> <![endif]-->\\r\\n<!--[if IE 9]><html class="ie9 ie-lte9 no-js" lang="\', escape=False)\nresponse.write(T.accepted_language or \'en\')\nresponse.write(\'"> <![endif]-->\\r\\n<!--[if (gt IE 9)|!(IE)]><!--> <html class="no-js" lang="\', escape=False)\nresponse.write(T.accepted_language or \'en\')\nresponse.write(\'"> <!--<![endif]-->\\r\\n<head>\\r\\n<title>\', escape=False)\nresponse.write(\'Money\')\nresponse.write(\'</title>\\r\\n  <!--[if !HTML5]>\\r\\n      <meta http-equiv="X-UA-Compatible" content="IE=edge\', escape=False)\nresponse.write(not request.is_local and \',chrome=1\' or \'\')\nresponse.write(\'">\\r\\n  <![endif]-->\\r\\n  <!-- www.phpied.com/conditional-comments-block-downloads/ -->\\r\\n  <!-- Always force latest IE rendering engine\\r\\n       (even in intranet) & Chrome Frame\\r\\n       Remove this if you use the .htaccess -->\\r\\n\\r\\n  <meta charset="utf-8" />\\r\\n\\r\\n  <!-- http://dev.w3.org/html5/markup/meta.name.html -->\\r\\n  <meta name="application-name" content="\', escape=False)\nresponse.write(request.application)\nresponse.write(\'" />\\r\\n\\r\\n  <!-- Speaking of Google, don\\\'t forget to set your site up:\\r\\n       http://google.com/webmasters -->\\r\\n  <meta name="google-site-verification" content="" />\\r\\n\\r\\n  <!--  Mobile Viewport Fix\\r\\n        j.mp/mobileviewport & davidbcalhoun.com/2010/viewport-metatag\\r\\n        device-width: Occupy full width of the screen in its current orientation\\r\\n        initial-scale = 1.0 retains dimensions instead of zooming out if page height > device height\\r\\n        user-scalable = yes allows the user to zoom in -->\\r\\n  <meta name="viewport" content="width=device-width, initial-scale=1.0" />\\r\\n\\r\\n  <link rel="shortcut icon" href="\', escape=False)\nresponse.write(URL(\'static\',\'images/favicon.ico\'))\nresponse.write(\'" type="image/x-icon">\\r\\n  <link rel="apple-touch-icon" href="\', escape=False)\nresponse.write(URL(\'static\',\'images/favicon.png\'))\nresponse.write(\'">\\r\\n\\r\\n    <link rel="stylesheet" href="http://maxcdn.bootstrapcdn.com/bootstrap/3.2.0/css/bootstrap.min.css">\\r\\n\\r\\n        <!-- jQuery library -->\\r\\n    <script src="https://ajax.googleapis.com/ajax/libs/jquery/1.11.1/jquery.min.js"></script>\\r\\n\\r\\n        <!-- Latest compiled JavaScript -->\\r\\n    <script src="http://maxcdn.bootstrapcdn.com/bootstrap/3.2.0/js/bootstrap.min.js"></script>\\r\\n\\r\\n  <!-- All JavaScript at the bottom, except for Modernizr which enables\\r\\n       HTML5 elements & feature detects -->\\r\\n  <script src="\', escape=False)\nresponse.write(URL(\'static\',\'js/modernizr.custom.js\'))\nresponse.write(\'"></script>\\r\\n\\r\\n  <!-- include stylesheets -->\\r\\n  \', escape=False)\nresponse.files.insert(0,URL(\'static\',\'css/web2py.css\'))\nresponse.files.insert(1,URL(\'static\',\'css/bootstrap.min.css\'))\nresponse.files.insert(2,URL(\'static\',\'css/bootstrap-responsive.min.css\'))\nresponse.files.insert(3,URL(\'static\',\'css/web2py_bootstrap.css\'))\nresponse.write(\'\\r\\n\\r\\n  \', escape=False)\nresponse.write(\'<script type="text/javascript"><!--\\n    // These variables are used by the web2py_ajax_init function in web2py_ajax.js (which is loaded below).\\n    var w2p_ajax_confirm_message = "\', escape=False)\nresponse.write(T(\'Are you sure you want to delete this object?\'))\nresponse.write(\'";\\n    var w2p_ajax_disable_with_message = "\', escape=False)\nresponse.write(T(\'Working...\'))\nresponse.write(\'";\\n    var w2p_ajax_date_format = "\', escape=False)\nresponse.write(T(\'%Y-%m-%d\'))\nresponse.write(\'";\\n    var w2p_ajax_datetime_format = "\', escape=False)\nresponse.write(T(\'%Y-%m-%d %H:%M:%S\'))\nresponse.write(\'";\\n    var ajax_error_500 = \\\'\', escape=False)\nresponse.write(T.M(\'An error occured, please [[reload %s]] the page\') % URL(args=request.args, vars=request.get_vars))\nresponse.write("\'\\n    //--></script>\\n", escape=False)\nresponse.files.insert(0,URL(\'static\',\'js/jquery.js\'))\nresponse.files.insert(1,URL(\'static\',\'css/calendar.css\'))\nresponse.files.insert(2,URL(\'static\',\'js/calendar.js\'))\nresponse.files.insert(3,URL(\'static\',\'js/web2py.js\'))\nresponse.include_meta()\nresponse.include_files()\nresponse.write(\'\\n\', escape=False)\nresponse.write(\'\\r\\n\\r\\n  \', escape=False)\n# using sidebars need to know what sidebar you want to use\nleft_sidebar_enabled = globals().get(\'left_sidebar_enabled\',False)\nright_sidebar_enabled = globals().get(\'right_sidebar_enabled\',False)\nmiddle_columns = {0:\'span12\',1:\'span9\',2:\'span6\'}[\n(left_sidebar_enabled and 1 or 0)+(right_sidebar_enabled and 1 or 0)]\nresponse.write(\'\\r\\n\\r\\n  <!-- uncomment here to load jquery-ui\\r\\n       <link rel="stylesheet" href="http://ajax.googleapis.com/ajax/libs/jqueryui/1.10.3/themes/ui-lightness/jquery-ui.css" type="text/css" media="all" />\\r\\n       <script src="http://ajax.googleapis.com/ajax/libs/jqueryui/1.10.3/jquery-ui.min.js" type="text/javascript"></script>\\r\\n       uncomment to load jquery-ui //-->\\r\\n  <noscript><link href="\', escape=False)\nresponse.write(URL(\'static\', \'css/web2py_bootstrap_nojs.css\'))\nresponse.write(\'" rel="stylesheet" type="text/css" /></noscript>\\r\\n  \', escape=False)\nresponse.write(\'\\r\\n</head>\\r\\n\\r\\n<body>\\r\\n    <nav class="navbar navbar-default">\\r\\n        <div class="container-fluid">\\r\\n            <div class="navbar-header"><a class="navbar-brand" href="#">\', escape=False)\nresponse.write(appname)\nresponse.write(\'</a></div>\\r\\n            <div>\\r\\n                <ul class="nav navbar-nav navbar-right">\\r\\n                    \', escape=False)\nif auth.user:\n    response.write(\'\\r\\n                    <li><a href="\', escape=False)\n    response.write(URL(\'user\'))\n    response.write(\'/logout"><span class="glyphicon glyphicon-log-out"></span> Sair</a></li>\\r\\n                    \', escape=False)\nelse:\n    response.write(\'\\r\\n                    <li><a href="\', escape=False)\n    response.write(URL(\'user\'))\n    response.write(\'/login"><span class="glyphicon glyphicon-log-in"></span> Login</a></li>\\r\\n                    \', escape=False)\n    pass\nresponse.write(\'\\r\\n                </ul>\\r\\n            </div>\\r\\n        </div>\\r\\n    </nav>\\r\\n    \\r\\n    <div class="jumbotron">\\r\\n        <div class="row">\\r\\n            <div class="col-md-8"><h1>\', escape=False)\nresponse.write(appname)\nresponse.write(\'</h1></div>\\r\\n            <div class="col-md-4">\\r\\n                <div class="row">\\r\\n                    <div class="col-md-8">Carteira</div>\\r\\n                    <div class="col-md-4">\', escape=False)\nresponse.write(cur_values[\'wallet\'])\nresponse.write(\'</div>\\r\\n                </div>\\r\\n                <div class="container"><div class="row">&nbsp;</div></div>\\r\\n                <div class="row">\\r\\n                    <div class="col-md-8">Conta Corrente</div>\\r\\n                    <div class="col-md-4">\', escape=False)\nresponse.write(cur_values[\'account\'])\nresponse.write(\'</div>\\r\\n                </div>\\r\\n                <div class="container"><div class="row">&nbsp;</div></div>\\r\\n                <div class="row">\\r\\n                    <div class="col-md-8">Poupan&ccedil;a</div>\\r\\n                    <div class="col-md-4">\', escape=False)\nresponse.write(cur_values[\'savings\'])\nresponse.write(\'</div>\\r\\n                </div>\\r\\n            </div>\\r\\n        </div>\\r\\n    </div>\\r\\n\\r\\n  <div class="container">\\r\\n    <!-- Masthead ================================================== -->\\r\\n    <header class="mastheader row" id="header">\\r\\n      \', escape=False)\nif response.title:\n    response.write(\'\\r\\n        <div class="span12">\\r\\n            <div class="page-header">\\r\\n                <h1>\\r\\n                    \', escape=False)\n    response.write(response.title)\n    response.write(\'\\r\\n                    <small>\', escape=False)\n    response.write(response.subtitle or \'\')\n    response.write(\'</small>\\r\\n                </h1>\\r\\n            </div>\\r\\n        </div>\\r\\n\\t\', escape=False)\n    pass\nresponse.write(\'\\r\\n    </header>\\r\\n\\r\\n    <section id="main" class="main row">\\r\\n        <div class="\', escape=False)\nresponse.write(middle_columns)\nresponse.write(\'">\\r\\n            \', escape=False)\nresponse.write(\'\\r\\n            \', escape=False)\nresponse.write(\'\\r\\n        <div class="container">\\r\\n            <div class="container">\\r\\n                <div class="row">\\r\\n                    <div class="col-lg-12">\\r\\n                        <ul class="nav nav-pills">\\r\\n                            <li class="active"><a href="#">Despesas gerais</a></li>\\r\\n                            <li><a href="\', escape=False)\nresponse.write(URL(\'inout\'))\nresponse.write(\'">Entradas e Sa&iacute;das</a></li>\\r\\n                            <li><a href="\', escape=False)\nresponse.write(URL(\'planning\'))\nresponse.write(\'">Planejamento do m&ecirc;s</a></li>\\r\\n                            <li><a href="\', escape=False)\nresponse.write(URL(\'credit\'))\nresponse.write(\'">Faturas do Car&atilde;o de Cr&eacute;dito</a></li>\\r\\n                        </ul>\\r\\n                    </div>\\r\\n                </div>\\r\\n            </div>\\r\\n            <div class="container">\\r\\n                <div class="row">\\r\\n                    &nbsp;\\r\\n                </div>\\r\\n            </div>\\r\\n            <form method="get" action="\', escape=False)\nresponse.write(URL(\'index\'))\nresponse.write(\'" id="myform2">\\r\\n                <!--<input type="hidden" name="change_year" id="change_year" value="True"/>-->\\r\\n                <input type="hidden" name="cur_month" id="cur_month" value="\', escape=False)\nresponse.write(cur_month)\nresponse.write(\'" />\\r\\n                <select class="form-control" name="cur_year" id="cur_year" onchange="submit_form(\', escape=False)\nresponse.write(cur_month)\nresponse.write(\',\\\'myform2\\\')">\\r\\n                    \', escape=False)\nfor year in year_list:\n    response.write(\'\\r\\n                    <option \', escape=False)\n    response.write(\'selected\' if year == cur_year else \'\')\n    response.write(\'>\', escape=False)\n    response.write(year)\n    response.write(\'</option>\\r\\n                    \', escape=False)\n    pass\nresponse.write(\'\\r\\n                </select>\\r\\n                <div class="container">\\r\\n                    <div class="row">\\r\\n                    &nbsp;\\r\\n                    </div>\\r\\n                </div>\\r\\n                <ul class="nav nav-pills">\\r\\n                    \', escape=False)\nfor (month,m) in [(\'Janeiro\',1),(\'Fevereiro\',2),(\'Mar\xc3\xa7o\',3),(\'Abril\',4),(\'Maio\',5),(\'Junho\',6),(\'Julho\',7),(\'Agosto\',8),(\'Setembro\',9),(\'Outubro\',10),(\'Novembro\',11),(\'Dezembro\',12)]:\n    response.write(\'\\r\\n                    \', escape=False)\n    className = \'active\' if m == cur_month else \'inactive\'\n    response.write(\'\\r\\n                    <li class="\', escape=False)\n    response.write(className)\n    response.write(\'" id="li-\', escape=False)\n    response.write(month)\n    response.write(\'" onclick="submit_form(\', escape=False)\n    response.write(m)\n    response.write(\',\\\'myform2\\\')"><a href="#">\', escape=False)\n    response.write(month)\n    response.write(\'</a></li>\\r\\n                    \', escape=False)\n    pass\nresponse.write(\'\\r\\n                </ul>\\r\\n            </form>\\r\\n        </div>\\r\\n        <div class="container">\\r\\n            <div class="row">\\r\\n                &nbsp;\\r\\n            </div>\\r\\n        </div>\\r\\n        <div class="container">\\r\\n            <div class="row">\\r\\n                <div class="col-md-4">Cart&atilde;o de Cr&eacute;dito: \', escape=False)\nresponse.write(somas.get(\'credit\',0.0))\nresponse.write(\'</div>\\r\\n                <div class="col-md-4">Cart&atilde;o de D&eacute;bito: \', escape=False)\nresponse.write(somas.get(\'debit\',0.0))\nresponse.write(\'</div>\\r\\n                <div class="col-md-4">Dinheiro: \', escape=False)\nresponse.write(somas.get(\'money\',0.0))\nresponse.write(\'</div>\\r\\n            </div>\\r\\n        </div>\\r\\n        <div class="container">\\r\\n            <div class="row">\\r\\n                &nbsp;\\r\\n            </div>\\r\\n        </div>\\r\\n        <div class="container">\\r\\n            <div class="table-responsive">\\r\\n                <table class="table table-hover">\\r\\n                    <thead>\\r\\n                        <tr>\\r\\n                            <th colspan="1">Data</th>\\r\\n                            <th>Descri&ccedil;&atilde;o</th>\\r\\n                            <th>Tipo</th>\\r\\n                            <th>Valor</th>\\r\\n                            <th>Forma de Pagamento</th>\\r\\n                            <th>N. Parcelas</th>\\r\\n                        </tr>\\r\\n                    </thead>\\r\\n                    <tbody>\\r\\n                        \', escape=False)\nif success:\n    response.write(\'\\r\\n                        \', escape=False)\n    for expense in expenses:\n        response.write(\'\\r\\n                        <tr>\\r\\n                            <td style="display:none">\', escape=False)\n        response.write(expense.id)\n        response.write(\'</td>\\r\\n                            <td>\', escape=False)\n        response.write(expense.e_data)\n        response.write(\'</td>\\r\\n                            <td>\', escape=False)\n        response.write(expense.e_description)\n        response.write(\'</td>\\r\\n                            <td>\', escape=False)\n        response.write(expense.e_type)\n        response.write(\'</td>\\r\\n                            <td>\', escape=False)\n        response.write(expense.e_value)\n        response.write(\'</td>\\r\\n                            <td>\', escape=False)\n        response.write(expense.e_payment)\n        response.write(\'</td>\\r\\n                            <td><div style="display:\', escape=False)\n        response.write(\'inline\' if expense.e_payment == \'Cart\xc3\xa3o de Cr\xc3\xa9dito\' else \'none\')\n        response.write(\'">\', escape=False)\n        response.write(expense.e_quant)\n        response.write(\'</div></td>\\r\\n                        </tr>\\r\\n                        \', escape=False)\n        pass\n    response.write(\'\\r\\n                        \', escape=False)\nelse:\n    response.write(\'\\r\\n                        <tr><td colspan="5">\', escape=False)\n    response.write(message)\n    response.write(\'}</td></tr>\\r\\n                        \', escape=False)\n    pass\nresponse.write(\'\\r\\n                    </tbody>\\r\\n                </table>\\r\\n            </div>\\r\\n        </div>\\r\\n        <div class="container">\\r\\n            <button type="button" class="btn btn-primary" onclick="show_form(\\\'new_expense\\\')">Nova despesa...</button>\\r\\n            <div class="container">\\r\\n                <div class="row">\\r\\n                &nbsp;\\r\\n                </div>\\r\\n            </div>\\r\\n            <div class="container" style="display:none" id="new_expense">\\r\\n                <form class="form-inline" role="form" method="post" action="\', escape=False)\nresponse.write(URL(\'index\'))\nresponse.write(\'">\\r\\n                    <div class="form-group">\\r\\n                        <label class="sr-only" for="e_data">Data</label>\\r\\n                        <!--<input type="email" class="form-control" id="email" placeholder="Registro">-->\\r\\n                        <input type="date" class="form-control" name="e_data" id="e_data" placeholder="Data"/>\\r\\n                    </div>\\r\\n                    <div class="form-group">\\r\\n                        <label class="sr-only" for="e_description">Descri&ccedil;&atilde;o</label>\\r\\n                        <!--<input type="email" class="form-control" id="email" placeholder="Registro">-->\\r\\n                        <input type="text" class="form-control" name="e_description" id="e_description" placeholder="Descri&ccedil;&atilde;o"/>\\r\\n                    </div>\\r\\n                    <div class="form-group">\\r\\n                        <label class="sr-only" for="e_type">Tipo</label>\\r\\n                        <!--<input type="email" class="form-control" id="email" placeholder="Registro">-->\\r\\n                        <input type="text" class="form-control" name="e_type" id="e_type" placeholder="Tipo"/>\\r\\n                    </div>\\r\\n                    <div class="form-group">\\r\\n                        <label class="sr-only" for="e-value">Valor</label>\\r\\n                        <!--<input type="email" class="form-control" id="email" placeholder="Registro">-->\\r\\n                        <input type="text" class="form-control" name="e_value" id="e_value" placeholder="Valor"/>\\r\\n                    </div>\\r\\n                    <div class="form-group">\\r\\n                        <label class="sr-only" for="e_register">Forma de Pagamento</label>\\r\\n                        <!--<input type="email" class="form-control" id="email" placeholder="Registro">-->\\r\\n                        <select class="form-control" name="e_payment" id="e_payment" onchange="verify_option(this)">\\r\\n                            <option></option>\\r\\n                            <option>Cart&atilde;o de Cr&eacute;dito</option>\\r\\n                            <option>Cart&atilde;o de D&eacute;bito</option>\\r\\n                            <option>Dinheiro</option>\\r\\n                        </select>\\r\\n                    </div>\\r\\n                    <div class="form-group" id="quant" style="display:none">\\r\\n                        <label class="sr-only" for="e_quant">N. Parcelas</label>\\r\\n                        <!--<input type="email" class="form-control" id="email" placeholder="Registro">-->\\r\\n                        <input type="text" class="form-control" name="e_quant" id="e_quant" placeholder="N. Parcelas"/>\\r\\n                    </div>\\r\\n                    <div class="container">\\r\\n                        <div class="row">\\r\\n                        &nbsp;\\r\\n                        </div>\\r\\n                    </div>\\r\\n                    <button type="submit" class="btn btn-default">Enviar Dados</button>\\r\\n                    <button type="button" class="btn btn-primary" onclick="hide_form(\\\'new_expense\\\')">Cancelar</button>\\r\\n                    <input type="hidden" name="is_submition" value="True" />\\r\\n                </form>\\r\\n                <!--<form method="post" action="\', escape=False)\nresponse.write(URL(\'index\'))\nresponse.write(\'" id="myform">\\r\\n                    <div class="table-responsive">\\r\\n                        <table class="table">\\r\\n                            <thead>\\r\\n                                <tr>\\r\\n                                    <th>Data</th>\\r\\n                                    <th>Descri&ccedil;&atilde;o</th>\\r\\n                                    <th>Tipo</th>\\r\\n                                    <th>Valor</th>\\r\\n                                    <th>Forma de pagamento</th>\\r\\n                                </tr>\\r\\n                            </thead>\\r\\n                            <tbody>\\r\\n                                <tr>\\r\\n                                    <td><input type="date" name="e_data" id="e_data" /></td>\\r\\n                                    <td><input type="text" name="e_description" id="e_description" /></td>\\r\\n                                    <td><input type="text" name="e_type" id="e_type" /></td>\\r\\n                                    <td><input type="text" name="e_value" id="e_value" /></td>\\r\\n                                    <td>\\r\\n                                        <select class="form-control" name="e_payment" id="e_payment">\\r\\n                                            <option>Cart&atilde;o de Cr&eacute;dito</option>\\r\\n                                            <option>Cart&atilde;o de D&eacute;bito</option>\\r\\n                                            <option>Dinheiro</option>\\r\\n                                        </select>\\r\\n                                    </td>\\r\\n                                </tr>\\r\\n                            </tbody>\\r\\n                        </table>\\r\\n                    </div>\\r\\n                    <div class="container">\\r\\n                        <button type="button" class="btn btn-primary" onclick="myform.submit()">Enviar Dados</button>\\r\\n                        <button type="button" class="btn btn-primary" onclick="hide_form(\\\'new_expense\\\')">Cancelar</button>\\r\\n                    </div>\\r\\n                    <input type="hidden" name="is_submition" value="True" />\\r\\n                </form>-->\\r\\n            </div>\\r\\n        </div>\\r\\n        <div class="container">\\r\\n            <div class="row">\\r\\n                &nbsp;\\r\\n            </div>\\r\\n        </div>\\r\\n    </body>\\r\\n</html>\\r\\n\', escape=False)\nresponse.write(\'\\r\\n            \', escape=False)\nresponse.write(\'\\r\\n        </div>\\r\\n    </section><!--/main-->\\r\\n\\r\\n    <!-- Footer ================================================== -->\\r\\n    <div class="row">\\r\\n        <footer class="footer span12" id="footer">\\r\\n            <div class="footer-content">\\r\\n                \', escape=False)\nresponse.write(\' <!-- this is default footer -->\\r\\n                <div class="copyright pull-left">\', escape=False)\nresponse.write(T(\'Copyright\'))\nresponse.write(\' &#169; \', escape=False)\nresponse.write(request.now.year)\nresponse.write(\'</div>\\r\\n                <div id="poweredBy" class="pull-right">\\r\\n                    \', escape=False)\nresponse.write(T(\'Powered by\'))\nresponse.write(\'\\r\\n                    <a href="http://www.renatolmorais.com.br/">RenatoLMorais</a>\\r\\n                </div>\\r\\n                \', escape=False)\nresponse.write(\'\\r\\n            </div>\\r\\n        </footer>\\r\\n    </div>\\r\\n\\r\\n  </div> <!-- /container -->\\r\\n\\r\\n  <!-- The javascript =============================================\\r\\n       (Placed at the end of the document so the pages load faster) -->\\r\\n  <script src="\', escape=False)\nresponse.write(URL(\'static\',\'js/bootstrap.min.js\'))\nresponse.write(\'"></script>\\r\\n  <script src="\', escape=False)\nresponse.write(URL(\'static\',\'js/web2py_bootstrap.js\'))\nresponse.write(\'"></script>\\r\\n  <!--[if lt IE 7 ]>\\r\\n      <script src="\', escape=False)\nresponse.write(URL(\'static\',\'js/dd_belatedpng.js\'))\nresponse.write(\'"></script>\\r\\n      <script> DD_belatedPNG.fix(\\\'img, .png_bg\\\'); //fix any <img> or .png_bg background-images </script>\\r\\n      <![endif]-->\\r\\n\\r\\n  \', escape=False)\nif response.google_analytics_id:\n    response.write("\\r\\n  <!-- Google Analytics -->\\r\\n  <script>\\r\\n    (function(i,s,o,g,r,a,m){i[\'GoogleAnalyticsObject\']=r;i[r]=i[r]||function(){\\r\\n(i[r].q=i[r].q||[]).push(arguments)},i[r].l=1*new Date();a=s.createElement(o),\\r\\nm=s.getElementsByTagName(o)[0];a.async=1;a.src=g;m.parentNode.insertBefore(a,m)\\r\\n})(window,document,\'script\',\'//www.google-analytics.com/analytics.js\',\'ga\');\\r\\n    ga(\'create\', \'", escape=False)\n    response.write(response.google_analytics_id)\n    response.write("\', \'auto\');\\r\\n    ga(\'send\', \'pageview\');\\r\\n  </script>\\r\\n  <!-- End Google Analytics -->\\r\\n  ", escape=False)\n    pass\nresponse.write(\'\\r\\n  <script src="\', escape=False)\nresponse.write(URL(\'static\',\'js/share.js\',vars=dict(static=URL(\'static\',\'images\'))))\nresponse.write(\'"></script>\\r\\n    <script>\\r\\n            function show_form(formid) {\\r\\n                var myform = document.getElementById(formid);\\r\\n                myform.style.display = "inline";\\r\\n                document.getElementById(\\\'e_data\\\').focus();\\r\\n                myform.scrollIntoView();\\r\\n            }\\r\\n            function hide_form(formid) {\\r\\n                document.getElementById("quant").style.display = "none";\\r\\n                document.getElementById(formid).style.display = "none";\\r\\n            }\\r\\n            function submit_form(cur_month,formid) {\\r\\n                var obj = document.getElementById(\\\'cur_month\\\');\\r\\n                obj.value = cur_month;\\r\\n                document.getElementById(formid).submit();\\r\\n            }\\r\\n            function activate(listobj) {\\r\\n                var objs = document.getElementsByTagName("li");\\r\\n                var i;\\r\\n                for(i = 0; i < objs.length; i++) {\\r\\n                    objs[i].className = "inactive";\\r\\n                }\\r\\n                listobj.className = "active";\\r\\n            }\\r\\n            function verify_option(selobj) {\\r\\n                var string = "Cart\\xc3\\xa3o de Cr\\xc3\\xa9dito";\\r\\n                if (selobj.value == string) {\\r\\n                    var quant = document.getElementById("quant");\\r\\n                    quant.style.display = "inline";\\r\\n                }\\r\\n            }\\r\\n        </script>\\r\\n</body>\\r\\n</html>\\r\\n\', escape=False)'
p7
sS'snapshot'
p8
(dp9
S'exception'
p10
(dp11
S'__hash__'
p12
S"<method-wrapper '__hash__' of exceptions.KeyError object>"
p13
sS'__setattr__'
p14
S"<method-wrapper '__setattr__' of exceptions.KeyError object>"
p15
sS'__reduce_ex__'
p16
S'<built-in method __reduce_ex__ of exceptions.KeyError object>'
p17
sS'__getslice__'
p18
S"<method-wrapper '__getslice__' of exceptions.KeyError object>"
p19
sS'__getitem__'
p20
S"<method-wrapper '__getitem__' of exceptions.KeyError object>"
p21
sS'__setstate__'
p22
S'<built-in method __setstate__ of exceptions.KeyError object>'
p23
sS'__reduce__'
p24
S'<built-in method __reduce__ of exceptions.KeyError object>'
p25
sS'__str__'
p26
S"<method-wrapper '__str__' of exceptions.KeyError object>"
p27
sS'__format__'
p28
S'<built-in method __format__ of exceptions.KeyError object>'
p29
sS'__getattribute__'
p30
S"<method-wrapper '__getattribute__' of exceptions.KeyError object>"
p31
sS'__class__'
p32
S"<type 'exceptions.KeyError'>"
p33
sS'__unicode__'
p34
S'<built-in method __unicode__ of exceptions.KeyError object>'
p35
sS'__delattr__'
p36
S"<method-wrapper '__delattr__' of exceptions.KeyError object>"
p37
sS'__subclasshook__'
p38
S'<built-in method __subclasshook__ of type object>'
p39
sS'__repr__'
p40
S"<method-wrapper '__repr__' of exceptions.KeyError object>"
p41
sS'args'
p42
S"('account',)"
p43
sS'__dict__'
p44
S'{}'
p45
sS'__sizeof__'
p46
S'<built-in method __sizeof__ of exceptions.KeyError object>'
p47
sS'__doc__'
p48
S"'Mapping key not found.'"
p49
sS'__init__'
p50
S"<method-wrapper '__init__' of exceptions.KeyError object>"
p51
sS'__new__'
p52
S'<built-in method __new__ of type object>'
p53
ssS'evalue'
p54
S"'account'"
p55
sS'request'
p56
cgluon.html
XML_unpickle
p57
(S'sdU\x00\x00<div><table><tr><td style="font-weight:bold;vertical-align:top;">ajax</td><td style="vertical-align:top;">:</td><td><div>False</div></td></tr><tr><td style="font-weight:bold;vertical-align:top;">application</td><td style="vertical-align:top;">:</td><td><div>money</div></td></tr><tr><td style="font-weight:bold;vertical-align:top;">args</td><td style="vertical-align:top;">:</td><td><div><table></table></div></td></tr><tr><td style="font-weight:bold;vertical-align:top;">cid</td><td style="vertical-align:top;">:</td><td><div>None</div></td></tr><tr><td style="font-weight:bold;vertical-align:top;">client</td><td style="vertical-align:top;">:</td><td><div>127.0.0.1</div></td></tr><tr><td style="font-weight:bold;vertical-align:top;">controller</td><td style="vertical-align:top;">:</td><td><div>default</div></td></tr><tr><td style="font-weight:bold;vertical-align:top;">cookies</td><td style="vertical-align:top;">:</td><td><div><table><tr><td style="font-weight:bold;vertical-align:top;">session_id_money</td><td style="vertical-align:top;">:</td><td><div>127.0.0.1-3b9696b7-463d-46b0-a72b-aa1bddfddebe<table><tr><td style="font-weight:bold;vertical-align:top;">comment</td><td style="vertical-align:top;">:</td><td><div></div></td></tr><tr><td style="font-weight:bold;vertical-align:top;">domain</td><td style="vertical-align:top;">:</td><td><div></div></td></tr><tr><td style="font-weight:bold;vertical-align:top;">expires</td><td style="vertical-align:top;">:</td><td><div></div></td></tr><tr><td style="font-weight:bold;vertical-align:top;">httponly</td><td style="vertical-align:top;">:</td><td><div></div></td></tr><tr><td style="font-weight:bold;vertical-align:top;">max-age</td><td style="vertical-align:top;">:</td><td><div></div></td></tr><tr><td style="font-weight:bold;vertical-align:top;">path</td><td style="vertical-align:top;">:</td><td><div></div></td></tr><tr><td style="font-weight:bold;vertical-align:top;">secure</td><td style="vertical-align:top;">:</td><td><div></div></td></tr><tr><td style="font-weight:bold;vertical-align:top;">version</td><td style="vertical-align:top;">:</td><td><div></div></td></tr></table></div></td></tr></table></div></td></tr><tr><td style="font-weight:bold;vertical-align:top;">env</td><td style="vertical-align:top;">:</td><td><div><table><tr><td style="font-weight:bold;vertical-align:top;">HTTP_ACCEPT</td><td style="vertical-align:top;">:</td><td><div>text/html,application/xhtml+xml,application/xml;q=0.9,*/*;q=0.8</div></td></tr><tr><td style="font-weight:bold;vertical-align:top;">HTTP_ACCEPT_ENCODING</td><td style="vertical-align:top;">:</td><td><div>gzip, deflate</div></td></tr><tr><td style="font-weight:bold;vertical-align:top;">HTTP_ACCEPT_LANGUAGE</td><td style="vertical-align:top;">:</td><td><div>pt-BR,pt;q=0.8,en-US;q=0.5,en;q=0.3</div></td></tr><tr><td style="font-weight:bold;vertical-align:top;">HTTP_CONNECTION</td><td style="vertical-align:top;">:</td><td><div>keep-alive</div></td></tr><tr><td style="font-weight:bold;vertical-align:top;">HTTP_COOKIE</td><td style="vertical-align:top;">:</td><td><div>session_id_money=127.0.0.1-3b9696b7-463d-46b0-a72b-aa1bddfddebe</div></td></tr><tr><td style="font-weight:bold;vertical-align:top;">HTTP_DNT</td><td style="vertical-align:top;">:</td><td><div>1</div></td></tr><tr><td style="font-weight:bold;vertical-align:top;">HTTP_HOST</td><td style="vertical-align:top;">:</td><td><div>localhost:8000</div></td></tr><tr><td style="font-weight:bold;vertical-align:top;">HTTP_REFERER</td><td style="vertical-align:top;">:</td><td><div>http://localhost:8000/money</div></td></tr><tr><td style="font-weight:bold;vertical-align:top;">HTTP_USER_AGENT</td><td style="vertical-align:top;">:</td><td><div>Mozilla/5.0 (Windows NT 6.1; rv:36.0) Gecko/20100101 Firefox/36.0</div></td></tr><tr><td style="font-weight:bold;vertical-align:top;">PATH_INFO</td><td style="vertical-align:top;">:</td><td><div>/money/default/expenses</div></td></tr><tr><td style="font-weight:bold;vertical-align:top;">QUERY_STRING</td><td style="vertical-align:top;">:</td><td><div></div></td></tr><tr><td style="font-weight:bold;vertical-align:top;">REMOTE_ADDR</td><td style="vertical-align:top;">:</td><td><div>127.0.0.1</div></td></tr><tr><td style="font-weight:bold;vertical-align:top;">REMOTE_PORT</td><td style="vertical-align:top;">:</td><td><div>49512</div></td></tr><tr><td style="font-weight:bold;vertical-align:top;">REQUEST_METHOD</td><td style="vertical-align:top;">:</td><td><div>GET</div></td></tr><tr><td style="font-weight:bold;vertical-align:top;">SCRIPT_NAME</td><td style="vertical-align:top;">:</td><td><div></div></td></tr><tr><td style="font-weight:bold;vertical-align:top;">SERVER_NAME</td><td style="vertical-align:top;">:</td><td><div>NTIGER</div></td></tr><tr><td style="font-weight:bold;vertical-align:top;">SERVER_PORT</td><td style="vertical-align:top;">:</td><td><div>8000</div></td></tr><tr><td style="font-weight:bold;vertical-align:top;">SERVER_PROTOCOL</td><td style="vertical-align:top;">:</td><td><div>HTTP/1.1</div></td></tr><tr><td style="font-weight:bold;vertical-align:top;">SERVER_SOFTWARE</td><td style="vertical-align:top;">:</td><td><div>Rocket 1.2.6</div></td></tr><tr><td style="font-weight:bold;vertical-align:top;">app_folders</td><td style="vertical-align:top;">:</td><td><div>set([&#x27;C:\\\\Users\\\\suporte_renato\\\\Downloads\\\\web2py\\\\applications\\\\welcome\\\\&#x27;, &#x27;C:\\\\Users\\\\suporte_renato\\\\Downloads\\\\web2py\\\\applications\\\\admin\\\\&#x27;, &#x27;C:\\\\Users\\\\suporte_renato\\\\Downloads\\\\web2py\\\\applications\\\\money\\\\&#x27;])</div></td></tr><tr><td style="font-weight:bold;vertical-align:top;">applications_parent</td><td style="vertical-align:top;">:</td><td><div>C:\\Users\\suporte_renato\\Downloads\\web2py</div></td></tr><tr><td style="font-weight:bold;vertical-align:top;">cmd_args</td><td style="vertical-align:top;">:</td><td><div><table></table></div></td></tr><tr><td style="font-weight:bold;vertical-align:top;">cmd_options</td><td style="vertical-align:top;">:</td><td><div>&lt;Values at 0x17c5eb8: {&#x27;verbose&#x27;: False, &#x27;ip&#x27;: &#x27;127.0.0.1&#x27;, &#x27;debuglevel&#x27;: 30, &#x27;with_scheduler&#x27;: False, &#x27;ips&#x27;: [&#x27;2002:96a4:5d43::96a4:5d43&#x27;, &#x27;10.0.0.1&#x27;, &#x27;150.164.93.67&#x27;, &#x27;fe80::cd79:83e4:3298:eed0%15&#x27;, &#x27;fe80::7979:717f:e060:3b2%12&#x27;, &#x27;172.16.2.99&#x27;], &#x27;shutdown_timeout&#x27;: 5, &#x27;taskbar&#x27;: False, &#x27;with_coverage&#x27;: False, &#x27;scheduler_groups&#x27;: None, &#x27;port&#x27;: 8000, &#x27;maxthreads&#x27;: None, &#x27;softcron&#x27;: False, &#x27;server_name&#x27;: &#x27;NTIGER&#x27;, &#x27;bpython&#x27;: False, &#x27;nogui&#x27;: False, &#x27;pid_filename&#x27;: &#x27;httpserver.pid&#x27;, &#x27;extcron&#x27;: False, &#x27;runcron&#x27;: False, &#x27;run_system_tests&#x27;: False, &#x27;test&#x27;: None, &#x27;folder&#x27;: &#x27;C:\\\\Users\\\\suporte_renato\\\\Downloads\\\\web2py&#x27;, &#x27;config&#x27;: &#x27;&#x27;, &#x27;minthreads&#x27;: None, &#x27;shell&#x27;: None, &#x27;run&#x27;: &#x27;&#x27;, &#x27;log_filename&#x27;: &#x27;httpserver.log&#x27;, &#x27;profiler_dir&#x27;: None, &#x27;args&#x27;: [&#x27;&#x27;], &#x27;socket_timeout&#x27;: 5, &#x27;ssl_ca_certificate&#x27;: None, &#x27;scheduler&#x27;: None, &#x27;interfaces&#x27;: None, &#x27;ssl_private_key&#x27;: &#x27;&#x27;, &#x27;gae&#x27;: None, &#x27;password&#x27;: &#x27;&lt;ask&gt;&#x27;, &#x27;request_queue_size&#x27;: 5, &#x27;ssl_certificate&#x27;: &#x27;&#x27;, &#x27;cronjob&#x27;: False, &#x27;numthreads&#x27;: None, &#x27;quiet&#x27;: False, &#x27;import_models&#x27;: False, &#x27;timeout&#x27;: 10, &#x27;plain&#x27;: False, &#x27;nobanner&#x27;: False}&gt;</div></td></tr><tr><td style="font-weight:bold;vertical-align:top;">db_sessions</td><td style="vertical-align:top;">:</td><td><div>set([])</div></td></tr><tr><td style="font-weight:bold;vertical-align:top;">debugging</td><td style="vertical-align:top;">:</td><td><div>True</div></td></tr><tr><td style="font-weight:bold;vertical-align:top;">gluon_parent</td><td style="vertical-align:top;">:</td><td><div>C:\\Users\\suporte_renato\\Downloads\\web2py</div></td></tr><tr><td style="font-weight:bold;vertical-align:top;">http_accept</td><td style="vertical-align:top;">:</td><td><div>text/html,application/xhtml+xml,application/xml;q=0.9,*/*;q=0.8</div></td></tr><tr><td style="font-weight:bold;vertical-align:top;">http_accept_encoding</td><td style="vertical-align:top;">:</td><td><div>gzip, deflate</div></td></tr><tr><td style="font-weight:bold;vertical-align:top;">http_accept_language</td><td style="vertical-align:top;">:</td><td><div>pt-BR,pt;q=0.8,en-US;q=0.5,en;q=0.3</div></td></tr><tr><td style="font-weight:bold;vertical-align:top;">http_connection</td><td style="vertical-align:top;">:</td><td><div>keep-alive</div></td></tr><tr><td style="font-weight:bold;vertical-align:top;">http_cookie</td><td style="vertical-align:top;">:</td><td><div>session_id_money=127.0.0.1-3b9696b7-463d-46b0-a72b-aa1bddfddebe</div></td></tr><tr><td style="font-weight:bold;vertical-align:top;">http_dnt</td><td style="vertical-align:top;">:</td><td><div>1</div></td></tr><tr><td style="font-weight:bold;vertical-align:top;">http_host</td><td style="vertical-align:top;">:</td><td><div>localhost:8000</div></td></tr><tr><td style="font-weight:bold;vertical-align:top;">http_referer</td><td style="vertical-align:top;">:</td><td><div>http://localhost:8000/money</div></td></tr><tr><td style="font-weight:bold;vertical-align:top;">http_user_agent</td><td style="vertical-align:top;">:</td><td><div>Mozilla/5.0 (Windows NT 6.1; rv:36.0) Gecko/20100101 Firefox/36.0</div></td></tr><tr><td style="font-weight:bold;vertical-align:top;">is_jython</td><td style="vertical-align:top;">:</td><td><div>False</div></td></tr><tr><td style="font-weight:bold;vertical-align:top;">is_pypy</td><td style="vertical-align:top;">:</td><td><div>False</div></td></tr><tr><td style="font-weight:bold;vertical-align:top;">is_source</td><td style="vertical-align:top;">:</td><td><div>False</div></td></tr><tr><td style="font-weight:bold;vertical-align:top;">local_hosts</td><td style="vertical-align:top;">:</td><td><div><table><tr><td><div>2002:96a4:5d43::96a4:5d43</div></td></tr><tr><td><div>10.0.0.1</div></td></tr><tr><td><div>NTIGER</div></td></tr><tr><td><div>::ffff:127.0.0.1</div></td></tr><tr><td><div>::1</div></td></tr><tr><td><div>150.164.93.67</div></td></tr><tr><td><div>fe80::7979:717f:e060:3b2%12</div></td></tr><tr><td><div>fe80::cd79:83e4:3298:eed0%15</div></td></tr><tr><td><div>172.16.2.99</div></td></tr><tr><td><div>127.0.0.1</div></td></tr></table></div></td></tr><tr><td style="font-weight:bold;vertical-align:top;">path_info</td><td style="vertical-align:top;">:</td><td><div>/money/default/expenses</div></td></tr><tr><td style="font-weight:bold;vertical-align:top;">query_string</td><td style="vertical-align:top;">:</td><td><div></div></td></tr><tr><td style="font-weight:bold;vertical-align:top;">remote_addr</td><td style="vertical-align:top;">:</td><td><div>127.0.0.1</div></td></tr><tr><td style="font-weight:bold;vertical-align:top;">remote_port</td><td style="vertical-align:top;">:</td><td><div>49512</div></td></tr><tr><td style="font-weight:bold;vertical-align:top;">request_method</td><td style="vertical-align:top;">:</td><td><div>GET</div></td></tr><tr><td style="font-weight:bold;vertical-align:top;">request_uri</td><td style="vertical-align:top;">:</td><td><div>/money/default/expenses</div></td></tr><tr><td style="font-weight:bold;vertical-align:top;">script_name</td><td style="vertical-align:top;">:</td><td><div></div></td></tr><tr><td style="font-weight:bold;vertical-align:top;">server_name</td><td style="vertical-align:top;">:</td><td><div>NTIGER</div></td></tr><tr><td style="font-weight:bold;vertical-align:top;">server_port</td><td style="vertical-align:top;">:</td><td><div>8000</div></td></tr><tr><td style="font-weight:bold;vertical-align:top;">server_protocol</td><td style="vertical-align:top;">:</td><td><div>HTTP/1.1</div></td></tr><tr><td style="font-weight:bold;vertical-align:top;">server_software</td><td style="vertical-align:top;">:</td><td><div>Rocket 1.2.6</div></td></tr><tr><td style="font-weight:bold;vertical-align:top;">web2py_path</td><td style="vertical-align:top;">:</td><td><div>C:\\Users\\suporte_renato\\Downloads\\web2py</div></td></tr><tr><td style="font-weight:bold;vertical-align:top;">web2py_version</td><td style="vertical-align:top;">:</td><td><div>2.9.12-stable+timestamp.2015.02.15.23.04.25</div></td></tr><tr><td style="font-weight:bold;vertical-align:top;">wsgi.errors</td><td style="vertical-align:top;">:</td><td><div>&lt;open file &#x27;&lt;stderr&gt;&#x27;, mode &#x27;w&#x27; at 0x0143D0D0&gt;</div></td></tr><tr><td style="font-weight:bold;vertical-align:top;">wsgi.file_wrapper</td><td style="vertical-align:top;">:</td><td><div>&lt;class wsgiref.util.FileWrapper at 0x019837A0&gt;</div></td></tr><tr><td style="font-weight:bold;vertical-align:top;">wsgi.input</td><td style="vertical-align:top;">:</td><td><div>&lt;socket._fileobject object at 0x07462270&gt;</div></td></tr><tr><td style="font-weight:bold;vertical-align:top;">wsgi.multiprocess</td><td style="vertical-align:top;">:</td><td><div>False</div></td></tr><tr><td style="font-weight:bold;vertical-align:top;">wsgi.multithread</td><td style="vertical-align:top;">:</td><td><div>True</div></td></tr><tr><td style="font-weight:bold;vertical-align:top;">wsgi.run_once</td><td style="vertical-align:top;">:</td><td><div>False</div></td></tr><tr><td style="font-weight:bold;vertical-align:top;">wsgi.url_scheme</td><td style="vertical-align:top;">:</td><td><div>http</div></td></tr><tr><td style="font-weight:bold;vertical-align:top;">wsgi.version</td><td style="vertical-align:top;">:</td><td><div><table><tr><td><div>1</div></td></tr><tr><td><div>0</div></td></tr></table></div></td></tr><tr><td style="font-weight:bold;vertical-align:top;">wsgi_errors</td><td style="vertical-align:top;">:</td><td><div>&lt;open file &#x27;&lt;stderr&gt;&#x27;, mode &#x27;w&#x27; at 0x0143D0D0&gt;</div></td></tr><tr><td style="font-weight:bold;vertical-align:top;">wsgi_file_wrapper</td><td style="vertical-align:top;">:</td><td><div>&lt;class wsgiref.util.FileWrapper at 0x019837A0&gt;</div></td></tr><tr><td style="font-weight:bold;vertical-align:top;">wsgi_input</td><td style="vertical-align:top;">:</td><td><div>&lt;socket._fileobject object at 0x07462270&gt;</div></td></tr><tr><td style="font-weight:bold;vertical-align:top;">wsgi_multiprocess</td><td style="vertical-align:top;">:</td><td><div>False</div></td></tr><tr><td style="font-weight:bold;vertical-align:top;">wsgi_multithread</td><td style="vertical-align:top;">:</td><td><div>True</div></td></tr><tr><td style="font-weight:bold;vertical-align:top;">wsgi_run_once</td><td style="vertical-align:top;">:</td><td><div>False</div></td></tr><tr><td style="font-weight:bold;vertical-align:top;">wsgi_url_scheme</td><td style="vertical-align:top;">:</td><td><div>http</div></td></tr><tr><td style="font-weight:bold;vertical-align:top;">wsgi_version</td><td style="vertical-align:top;">:</td><td><div><table><tr><td><div>1</div></td></tr><tr><td><div>0</div></td></tr></table></div></td></tr></table></div></td></tr><tr><td style="font-weight:bold;vertical-align:top;">extension</td><td style="vertical-align:top;">:</td><td><div>html</div></td></tr><tr><td style="font-weight:bold;vertical-align:top;">folder</td><td style="vertical-align:top;">:</td><td><div>C:\\Users\\suporte_renato\\Downloads\\web2py\\applications\\money\\</div></td></tr><tr><td style="font-weight:bold;vertical-align:top;">function</td><td style="vertical-align:top;">:</td><td><div>expenses</div></td></tr><tr><td style="font-weight:bold;vertical-align:top;">global_settings</td><td style="vertical-align:top;">:</td><td><div><table><tr><td style="font-weight:bold;vertical-align:top;">app_folders</td><td style="vertical-align:top;">:</td><td><div>set([&#x27;C:\\\\Users\\\\suporte_renato\\\\Downloads\\\\web2py\\\\applications\\\\welcome\\\\&#x27;, &#x27;C:\\\\Users\\\\suporte_renato\\\\Downloads\\\\web2py\\\\applications\\\\admin\\\\&#x27;, &#x27;C:\\\\Users\\\\suporte_renato\\\\Downloads\\\\web2py\\\\applications\\\\money\\\\&#x27;])</div></td></tr><tr><td style="font-weight:bold;vertical-align:top;">applications_parent</td><td style="vertical-align:top;">:</td><td><div>C:\\Users\\suporte_renato\\Downloads\\web2py</div></td></tr><tr><td style="font-weight:bold;vertical-align:top;">cmd_args</td><td style="vertical-align:top;">:</td><td><div><table></table></div></td></tr><tr><td style="font-weight:bold;vertical-align:top;">cmd_options</td><td style="vertical-align:top;">:</td><td><div>&lt;Values at 0x17c5eb8: {&#x27;verbose&#x27;: False, &#x27;ip&#x27;: &#x27;127.0.0.1&#x27;, &#x27;debuglevel&#x27;: 30, &#x27;with_scheduler&#x27;: False, &#x27;ips&#x27;: [&#x27;2002:96a4:5d43::96a4:5d43&#x27;, &#x27;10.0.0.1&#x27;, &#x27;150.164.93.67&#x27;, &#x27;fe80::cd79:83e4:3298:eed0%15&#x27;, &#x27;fe80::7979:717f:e060:3b2%12&#x27;, &#x27;172.16.2.99&#x27;], &#x27;shutdown_timeout&#x27;: 5, &#x27;taskbar&#x27;: False, &#x27;with_coverage&#x27;: False, &#x27;scheduler_groups&#x27;: None, &#x27;port&#x27;: 8000, &#x27;maxthreads&#x27;: None, &#x27;softcron&#x27;: False, &#x27;server_name&#x27;: &#x27;NTIGER&#x27;, &#x27;bpython&#x27;: False, &#x27;nogui&#x27;: False, &#x27;pid_filename&#x27;: &#x27;httpserver.pid&#x27;, &#x27;extcron&#x27;: False, &#x27;runcron&#x27;: False, &#x27;run_system_tests&#x27;: False, &#x27;test&#x27;: None, &#x27;folder&#x27;: &#x27;C:\\\\Users\\\\suporte_renato\\\\Downloads\\\\web2py&#x27;, &#x27;config&#x27;: &#x27;&#x27;, &#x27;minthreads&#x27;: None, &#x27;shell&#x27;: None, &#x27;run&#x27;: &#x27;&#x27;, &#x27;log_filename&#x27;: &#x27;httpserver.log&#x27;, &#x27;profiler_dir&#x27;: None, &#x27;args&#x27;: [&#x27;&#x27;], &#x27;socket_timeout&#x27;: 5, &#x27;ssl_ca_certificate&#x27;: None, &#x27;scheduler&#x27;: None, &#x27;interfaces&#x27;: None, &#x27;ssl_private_key&#x27;: &#x27;&#x27;, &#x27;gae&#x27;: None, &#x27;password&#x27;: &#x27;&lt;ask&gt;&#x27;, &#x27;request_queue_size&#x27;: 5, &#x27;ssl_certificate&#x27;: &#x27;&#x27;, &#x27;cronjob&#x27;: False, &#x27;numthreads&#x27;: None, &#x27;quiet&#x27;: False, &#x27;import_models&#x27;: False, &#x27;timeout&#x27;: 10, &#x27;plain&#x27;: False, &#x27;nobanner&#x27;: False}&gt;</div></td></tr><tr><td style="font-weight:bold;vertical-align:top;">db_sessions</td><td style="vertical-align:top;">:</td><td><div>set([])</div></td></tr><tr><td style="font-weight:bold;vertical-align:top;">debugging</td><td style="vertical-align:top;">:</td><td><div>True</div></td></tr><tr><td style="font-weight:bold;vertical-align:top;">gluon_parent</td><td style="vertical-align:top;">:</td><td><div>C:\\Users\\suporte_renato\\Downloads\\web2py</div></td></tr><tr><td style="font-weight:bold;vertical-align:top;">is_jython</td><td style="vertical-align:top;">:</td><td><div>False</div></td></tr><tr><td style="font-weight:bold;vertical-align:top;">is_pypy</td><td style="vertical-align:top;">:</td><td><div>False</div></td></tr><tr><td style="font-weight:bold;vertical-align:top;">is_source</td><td style="vertical-align:top;">:</td><td><div>False</div></td></tr><tr><td style="font-weight:bold;vertical-align:top;">local_hosts</td><td style="vertical-align:top;">:</td><td><div><table><tr><td><div>2002:96a4:5d43::96a4:5d43</div></td></tr><tr><td><div>10.0.0.1</div></td></tr><tr><td><div>NTIGER</div></td></tr><tr><td><div>::ffff:127.0.0.1</div></td></tr><tr><td><div>::1</div></td></tr><tr><td><div>150.164.93.67</div></td></tr><tr><td><div>fe80::7979:717f:e060:3b2%12</div></td></tr><tr><td><div>fe80::cd79:83e4:3298:eed0%15</div></td></tr><tr><td><div>172.16.2.99</div></td></tr><tr><td><div>127.0.0.1</div></td></tr></table></div></td></tr><tr><td style="font-weight:bold;vertical-align:top;">web2py_version</td><td style="vertical-align:top;">:</td><td><div>2.9.12-stable+timestamp.2015.02.15.23.04.25</div></td></tr></table></div></td></tr><tr><td style="font-weight:bold;vertical-align:top;">is_https</td><td style="vertical-align:top;">:</td><td><div>False</div></td></tr><tr><td style="font-weight:bold;vertical-align:top;">is_local</td><td style="vertical-align:top;">:</td><td><div>True</div></td></tr><tr><td style="font-weight:bold;vertical-align:top;">is_restful</td><td style="vertical-align:top;">:</td><td><div>False</div></td></tr><tr><td style="font-weight:bold;vertical-align:top;">is_sheduler</td><td style="vertical-align:top;">:</td><td><div>None</div></td></tr><tr><td style="font-weight:bold;vertical-align:top;">is_shell</td><td style="vertical-align:top;">:</td><td><div>None</div></td></tr><tr><td style="font-weight:bold;vertical-align:top;">now</td><td style="vertical-align:top;">:</td><td><div>datetime.datetime(2015, 3, 23, 16, 46, 12, 399000)</div></td></tr><tr><td style="font-weight:bold;vertical-align:top;">raw_args</td><td style="vertical-align:top;">:</td><td><div></div></td></tr><tr><td style="font-weight:bold;vertical-align:top;">raw_extension</td><td style="vertical-align:top;">:</td><td><div>None</div></td></tr><tr><td style="font-weight:bold;vertical-align:top;">url</td><td style="vertical-align:top;">:</td><td><div>/money/default/expenses</div></td></tr><tr><td style="font-weight:bold;vertical-align:top;">utcnow</td><td style="vertical-align:top;">:</td><td><div>datetime.datetime(2015, 3, 23, 19, 46, 12, 399000)</div></td></tr><tr><td style="font-weight:bold;vertical-align:top;">uuid</td><td style="vertical-align:top;">:</td><td><div>money/127.0.0.1.2015-03-23.16-46-12.f1c4d971-0611-495b-8ad1-71a1e0c3412b</div></td></tr><tr><td style="font-weight:bold;vertical-align:top;">wsgi</td><td style="vertical-align:top;">:</td><td><div>&lt;gluon.main.LazyWSGI object at 0x0746B890&gt;</div></td></tr></table></div>'
tRp58
sS'frames'
p59
(lp60
(dp61
S'file'
p62
S'C:\\Users\\suporte_renato\\Downloads\\web2py\\gluon\\restricted.py'
p63
sS'dump'
p64
(dp65
S'environment'
p66
S"{'A': <class 'gluon.html.A'>, 'ANY_OF': <class 'gluon.validators.ANY_OF'>, 'ASSIGNJS': <function ASSIGNJS>, 'Auth': <class 'gluon.tools.Auth'>, 'B': <class 'gluon.html.B'>, 'BEAUTIFY': <class 'gluon.html.BEAUTIFY'>, 'BODY': <class 'gluon.html.BODY'>, 'BR': <class 'gluon.html.BR'>, 'BUTTON': <class 'gluon.html.BUTTON'>, 'CAT': <class 'gluon.html.CAT'>, ...}"
p67
sS'ccode'
p68
S'<code object <module> at 07466DA0, file "C:\\User...tions\\money\\views\\default/expenses.html", line 1>'
p69
ssS'lnum'
p70
I224
sS'lines'
p71
(dp72
I224
S'        exec ccode in environment'
p73
sI225
S'    except HTTP:'
p74
sI226
S'        raise'
p75
sI227
S'    except RestrictedError:'
p76
sI228
S'        # do not encapsulate (obfuscate) the original RestrictedError'
p77
sI219
S'    try:'
p78
sI220
S'        if isinstance(code, types.CodeType):'
p79
sI221
S'            ccode = code'
p80
sI222
S'        else:'
p81
sI223
S'            ccode = compile2(code, layer)'
p82
ssS'call'
p83
S'(code=r"response.write(\'<!--[if HTML5]><![endif]-->\\r\\n<...script>\\r\\n</body>\\r\\n</html>\\r\\n\', escape=False)", environment={\'A\': <class \'gluon.html.A\'>, \'ANY_OF\': <class \'gluon.validators.ANY_OF\'>, \'ASSIGNJS\': <function ASSIGNJS>, \'Auth\': <class \'gluon.tools.Auth\'>, \'B\': <class \'gluon.html.B\'>, \'BEAUTIFY\': <class \'gluon.html.BEAUTIFY\'>, \'BODY\': <class \'gluon.html.BODY\'>, \'BR\': <class \'gluon.html.BR\'>, \'BUTTON\': <class \'gluon.html.BUTTON\'>, \'CAT\': <class \'gluon.html.CAT\'>, ...}, layer=r\'C:\\Users\\suporte_renato\\Downloads\\web2py\\applications\\money\\views\\default/expenses.html\')'
p84
sS'func'
p85
S'restricted'
p86
sa(dp87
g62
S'C:\\Users\\suporte_renato\\Downloads\\web2py\\applications\\money\\views\\default\\expenses.html'
p88
sg64
(dp89
S'expense'
p90
S'undefined'
p91
sS'expenses'
p92
S'<Rows (18)>'
p93
ssg70
I73
sg71
(dp94
I64
S'    response.write(\'\\r\\n                    <li><a href="\', escape=False)'
p95
sI65
S"    response.write(URL('user'))"
p96
sI66
S'    response.write(\'/login"><span class="glyphicon glyphicon-log-in"></span> Login</a></li>\\r\\n                    \', escape=False)'
p97
sI67
S'    pass'
p98
sI68
S'response.write(\'\\r\\n                </ul>\\r\\n            </div>\\r\\n        </div>\\r\\n    </nav>\\r\\n    \\r\\n    <div class="jumbotron">\\r\\n        <div class="row">\\r\\n            <div class="col-md-8"><h1>\', escape=False)'
p99
sI69
S'response.write(appname)'
p100
sI70
S'response.write(\'</h1></div>\\r\\n            <div class="col-md-4">\\r\\n                <div class="row">\\r\\n                    <div class="col-md-8">Carteira</div>\\r\\n                    <div class="col-md-4">\', escape=False)'
p101
sI71
S"response.write(cur_values['wallet'])"
p102
sI72
S'response.write(\'</div>\\r\\n                </div>\\r\\n                <div class="container"><div class="row">&nbsp;</div></div>\\r\\n                <div class="row">\\r\\n                    <div class="col-md-8">Conta Corrente</div>\\r\\n                    <div class="col-md-4">\', escape=False)'
p103
sI73
S"response.write(cur_values['account'])"
p104
sI74
S'response.write(\'</div>\\r\\n                </div>\\r\\n                <div class="container"><div class="row">&nbsp;</div></div>\\r\\n                <div class="row">\\r\\n                    <div class="col-md-8">Poupan&ccedil;a</div>\\r\\n                    <div class="col-md-4">\', escape=False)'
p105
sI75
S"response.write(cur_values['savings'])"
p106
sI76
S'response.write(\'</div>\\r\\n                </div>\\r\\n            </div>\\r\\n        </div>\\r\\n    </div>\\r\\n\\r\\n  <div class="container">\\r\\n    <!-- Masthead ================================================== -->\\r\\n    <header class="mastheader row" id="header">\\r\\n      \', escape=False)'
p107
sI77
S'if response.title:'
p108
sI78
S'    response.write(\'\\r\\n        <div class="span12">\\r\\n            <div class="page-header">\\r\\n                <h1>\\r\\n                    \', escape=False)'
p109
sI79
S'    response.write(response.title)'
p110
sI80
S"    response.write('\\r\\n                    <small>', escape=False)"
p111
sI81
S"    response.write(response.subtitle or '')"
p112
sI82
S"    response.write('</small>\\r\\n                </h1>\\r\\n            </div>\\r\\n        </div>\\r\\n\\t', escape=False)"
p113
sI83
S'    pass'
p114
ssg83
S'()'
p115
sg85
S'<module>'
p116
sasS'pyver'
p117
S'Python 2.7.9: C:\\Users\\suporte_renato\\Downloads\\web2py\\web2py.exe (prefix: C:\\Python27)'
p118
sS'session'
p119
g57
(S'sx\t\x00\x00<div><table><tr><td style="font-weight:bold;vertical-align:top;">auth</td><td style="vertical-align:top;">:</td><td><div><table><tr><td style="font-weight:bold;vertical-align:top;">expiration</td><td style="vertical-align:top;">:</td><td><div>3600</div></td></tr><tr><td style="font-weight:bold;vertical-align:top;">hmac_key</td><td style="vertical-align:top;">:</td><td><div>653bb7ef-4732-49d8-830f-bb5b56537ffe</div></td></tr><tr><td style="font-weight:bold;vertical-align:top;">last_visit</td><td style="vertical-align:top;">:</td><td><div>datetime.datetime(2015, 3, 23, 16, 46, 11, 507000)</div></td></tr><tr><td style="font-weight:bold;vertical-align:top;">remember_me</td><td style="vertical-align:top;">:</td><td><div>False</div></td></tr><tr><td style="font-weight:bold;vertical-align:top;">user</td><td style="vertical-align:top;">:</td><td><div><table><tr><td style="font-weight:bold;vertical-align:top;">email</td><td style="vertical-align:top;">:</td><td><div>renato@renato.com</div></td></tr><tr><td style="font-weight:bold;vertical-align:top;">first_name</td><td style="vertical-align:top;">:</td><td><div>Renato</div></td></tr><tr><td style="font-weight:bold;vertical-align:top;">id</td><td style="vertical-align:top;">:</td><td><div>1L</div></td></tr><tr><td style="font-weight:bold;vertical-align:top;">last_name</td><td style="vertical-align:top;">:</td><td><div>Morais</div></td></tr><tr><td style="font-weight:bold;vertical-align:top;">registration_id</td><td style="vertical-align:top;">:</td><td><div>renato</div></td></tr><tr><td style="font-weight:bold;vertical-align:top;">registration_key</td><td style="vertical-align:top;">:</td><td><div></div></td></tr><tr><td style="font-weight:bold;vertical-align:top;">reset_password_key</td><td style="vertical-align:top;">:</td><td><div></div></td></tr><tr><td style="font-weight:bold;vertical-align:top;">username</td><td style="vertical-align:top;">:</td><td><div>renato</div></td></tr></table></div></td></tr><tr><td style="font-weight:bold;vertical-align:top;">user_groups</td><td style="vertical-align:top;">:</td><td><div><table><tr><td style="font-weight:bold;vertical-align:top;">1</td><td style="vertical-align:top;">:</td><td><div>manager</div></td></tr></table></div></td></tr></table></div></td></tr><tr><td style="font-weight:bold;vertical-align:top;">flash</td><td style="vertical-align:top;">:</td><td><div>None</div></td></tr></table></div>'
tRp120
sS'etype'
p121
S"<type 'exceptions.KeyError'>"
p122
sS'date'
p123
S'Mon Mar 23 16:46:12 2015'
p124
sS'response'
p125
g57
(S's\x9a4\x00\x00<div><table><tr><td style="font-weight:bold;vertical-align:top;">body</td><td style="vertical-align:top;">:</td><td><div>&lt;cStringIO.StringO object at 0x0744E920&gt;</div></td></tr><tr><td style="font-weight:bold;vertical-align:top;">cookies</td><td style="vertical-align:top;">:</td><td><div><table><tr><td style="font-weight:bold;vertical-align:top;">session_id_money</td><td style="vertical-align:top;">:</td><td><div>127.0.0.1-3b9696b7-463d-46b0-a72b-aa1bddfddebe<table><tr><td style="font-weight:bold;vertical-align:top;">comment</td><td style="vertical-align:top;">:</td><td><div></div></td></tr><tr><td style="font-weight:bold;vertical-align:top;">domain</td><td style="vertical-align:top;">:</td><td><div></div></td></tr><tr><td style="font-weight:bold;vertical-align:top;">expires</td><td style="vertical-align:top;">:</td><td><div></div></td></tr><tr><td style="font-weight:bold;vertical-align:top;">httponly</td><td style="vertical-align:top;">:</td><td><div></div></td></tr><tr><td style="font-weight:bold;vertical-align:top;">max-age</td><td style="vertical-align:top;">:</td><td><div></div></td></tr><tr><td style="font-weight:bold;vertical-align:top;">path</td><td style="vertical-align:top;">:</td><td><div>/</div></td></tr><tr><td style="font-weight:bold;vertical-align:top;">secure</td><td style="vertical-align:top;">:</td><td><div></div></td></tr><tr><td style="font-weight:bold;vertical-align:top;">version</td><td style="vertical-align:top;">:</td><td><div></div></td></tr></table></div></td></tr></table></div></td></tr><tr><td style="font-weight:bold;vertical-align:top;">delimiters</td><td style="vertical-align:top;">:</td><td><div><table><tr><td><div>{{</div></td></tr><tr><td><div>}}</div></td></tr></table></div></td></tr><tr><td style="font-weight:bold;vertical-align:top;">files</td><td style="vertical-align:top;">:</td><td><div><table><tr><td><div>/money/static/js/jquery.js</div></td></tr><tr><td><div>/money/static/css/calendar.css</div></td></tr><tr><td><div>/money/static/js/calendar.js</div></td></tr><tr><td><div>/money/static/js/web2py.js</div></td></tr><tr><td><div>/money/static/css/web2py.css</div></td></tr><tr><td><div>/money/static/css/bootstrap.min.css</div></td></tr><tr><td><div>/money/static/css/bootstrap-responsive.min.css</div></td></tr><tr><td><div>/money/static/css/web2py_bootstrap.css</div></td></tr></table></div></td></tr><tr><td style="font-weight:bold;vertical-align:top;">flash</td><td style="vertical-align:top;">:</td><td><div></div></td></tr><tr><td style="font-weight:bold;vertical-align:top;">form_label_separator</td><td style="vertical-align:top;">:</td><td><div>: </div></td></tr><tr><td style="font-weight:bold;vertical-align:top;">formstyle</td><td style="vertical-align:top;">:</td><td><div>table3cols</div></td></tr><tr><td style="font-weight:bold;vertical-align:top;">generic_patterns</td><td style="vertical-align:top;">:</td><td><div><table><tr><td><div>*</div></td></tr></table></div></td></tr><tr><td style="font-weight:bold;vertical-align:top;">google_analytics_id</td><td style="vertical-align:top;">:</td><td><div>None</div></td></tr><tr><td style="font-weight:bold;vertical-align:top;">headers</td><td style="vertical-align:top;">:</td><td><div><table><tr><td style="font-weight:bold;vertical-align:top;">X-Powered-By</td><td style="vertical-align:top;">:</td><td><div>web2py</div></td></tr></table></div></td></tr><tr><td style="font-weight:bold;vertical-align:top;">logo</td><td style="vertical-align:top;">:</td><td><div><a class="brand" href="http://www.web2py.com/"><b>web<span>2</span>py</b>&trade;&nbsp;</a></div></td></tr><tr><td style="font-weight:bold;vertical-align:top;">menu</td><td style="vertical-align:top;">:</td><td><div><table><tr><td><div><table><tr><td><div>Principal</div></td></tr><tr><td><div>False</div></td></tr><tr><td><div>/money/default/index</div></td></tr><tr><td><div><table></table></div></td></tr></table></div></td></tr><tr><td><div><table><tr><td><div><span class="highlighted">web2py</span></div></td></tr><tr><td><div>False</div></td></tr><tr><td><div>http://web2py.com</div></td></tr><tr><td><div><table><tr><td><div><table><tr><td><div>Meus sites</div></td></tr><tr><td><div>False</div></td></tr><tr><td><div>/admin/default/site</div></td></tr></table></div></td></tr><tr><td><div><table><tr><td><div>Esta aplica\xc3\xa7\xc3\xa3o</div></td></tr><tr><td><div>False</div></td></tr><tr><td><div>/admin/default/design/money</div></td></tr><tr><td><div>[(&lt;lazyT &#x27;Controller&#x27;&gt;, False, &#x27;/admin/default/edit/money/controllers/default.py&#x27;), (&lt;lazyT &#x27;View&#x27;&gt;, False, &#x27;/admin/default/edit/money/views/default/expenses.html&#x27;), (&lt;lazyT &#x27;Layout&#x27;&gt;, False, &#x27;/admin/default/edit/money/views/layout.html&#x27;), (&lt;lazyT &#x27;Stylesheet&#x27;&gt;, False, &#x27;/admin/default/edit/money/static/css/web2py.css&#x27;), (&lt;lazyT &#x27;DB Model&#x27;&gt;, False, &#x27;/admin/default/edit/money/models/db.py&#x27;), (&lt;lazyT &#x27;Menu Model&#x27;&gt;, False, &#x27;/admin/default/edit/money/models/menu.py&#x27;), (&lt;lazyT &#x27;Database&#x27;&gt;, False, &#x27;/money/appadmin/index&#x27;), (&lt;lazyT &#x27;Errors&#x27;&gt;, False, &#x27;/admin/default/errors/money&#x27;), (&lt;lazyT &#x27;About&#x27;&gt;, False, &#x27;/admin/default/about/money&#x27;)]</div></td></tr></table></div></td></tr><tr><td><div><table><tr><td><div>web2py.com</div></td></tr><tr><td><div>False</div></td></tr><tr><td><div>http://www.web2py.com</div></td></tr><tr><td><div>[(&lt;lazyT &#x27;Download&#x27;&gt;, False, &#x27;http://www.web2py.com/examples/default/download&#x27;), (&lt;lazyT &#x27;Support&#x27;&gt;, False, &#x27;http://www.web2py.com/examples/default/support&#x27;), (&lt;lazyT &#x27;Demo&#x27;&gt;, False, &#x27;http://web2py.com/demo_admin&#x27;), (&lt;lazyT &#x27;Quick Examples&#x27;&gt;, False, &#x27;http://web2py.com/examples/default/examples&#x27;), (&lt;lazyT &#x27;FAQ&#x27;&gt;, False, &#x27;http://web2py.com/AlterEgo&#x27;), (&lt;lazyT &#x27;Videos&#x27;&gt;, False, &#x27;http://www.web2py.com/examples/default/videos/&#x27;), (&lt;lazyT &#x27;Free Applications&#x27;&gt;, False, &#x27;http://web2py.com/appliances&#x27;), (&lt;lazyT &#x27;Plugins&#x27;&gt;, False, &#x27;http://web2py.com/plugins&#x27;), (&lt;lazyT &#x27;Layouts&#x27;&gt;, False, &#x27;http://web2py.com/layouts&#x27;), (&lt;lazyT &#x27;Recipes&#x27;&gt;, False, &#x27;http://web2pyslices.com/&#x27;), (&lt;lazyT &#x27;Semantic&#x27;&gt;, False, &#x27;http://web2py.com/semantic&#x27;)]</div></td></tr></table></div></td></tr><tr><td><div><table><tr><td><div>Documenta\xc3\xa7\xc3\xa3o</div></td></tr><tr><td><div>False</div></td></tr><tr><td><div>http://www.web2py.com/book</div></td></tr><tr><td><div>[(&lt;lazyT &#x27;Preface&#x27;&gt;, False, &#x27;http://www.web2py.com/book/default/chapter/00&#x27;), (&lt;lazyT &#x27;Introduction&#x27;&gt;, False, &#x27;http://www.web2py.com/book/default/chapter/01&#x27;), (&lt;lazyT &#x27;Python&#x27;&gt;, False, &#x27;http://www.web2py.com/book/default/chapter/02&#x27;), (&lt;lazyT &#x27;Overview&#x27;&gt;, False, &#x27;http://www.web2py.com/book/default/chapter/03&#x27;), (&lt;lazyT &#x27;The Core&#x27;&gt;, False, &#x27;http://www.web2py.com/book/default/chapter/04&#x27;), (&lt;lazyT &#x27;The Views&#x27;&gt;, False, &#x27;http://www.web2py.com/book/default/chapter/05&#x27;), (&lt;lazyT &#x27;Database&#x27;&gt;, False, &#x27;http://www.web2py.com/book/default/chapter/06&#x27;), (&lt;lazyT &#x27;Forms and Validators&#x27;&gt;, False, &#x27;http://www.web2py.com/book/default/chapter/07&#x27;), (&lt;lazyT &#x27;Email and SMS&#x27;&gt;, False, &#x27;http://www.web2py.com/book/default/chapter/08&#x27;), (&lt;lazyT &#x27;Access Control&#x27;&gt;, False, &#x27;http://www.web2py.com/book/default/chapter/09&#x27;), (&lt;lazyT &#x27;Services&#x27;&gt;, False, &#x27;http://www.web2py.com/book/default/chapter/10&#x27;), (&lt;lazyT &#x27;Ajax Recipes&#x27;&gt;, False, &#x27;http://www.web2py.com/book/default/chapter/11&#x27;), (&lt;lazyT &#x27;Components and Plugins&#x27;&gt;, False, &#x27;http://www.web2py.com/book/default/chapter/12&#x27;), (&lt;lazyT &#x27;Deployment Recipes&#x27;&gt;, False, &#x27;http://www.web2py.com/book/default/chapter/13&#x27;), (&lt;lazyT &#x27;Other Recipes&#x27;&gt;, False, &#x27;http://www.web2py.com/book/default/chapter/14&#x27;), (&lt;lazyT &#x27;Buy this book&#x27;&gt;, False, &#x27;http://stores.lulu.com/web2py&#x27;)]</div></td></tr></table></div></td></tr><tr><td><div><table><tr><td><div>Comunidade</div></td></tr><tr><td><div>False</div></td></tr><tr><td><div>None</div></td></tr><tr><td><div>[(&lt;lazyT &#x27;Groups&#x27;&gt;, False, &#x27;http://www.web2py.com/examples/default/usergroups&#x27;), (&lt;lazyT &#x27;Twitter&#x27;&gt;, False, &#x27;http://twitter.com/web2py&#x27;), (&lt;lazyT &#x27;Live Chat&#x27;&gt;, False, &#x27;http://webchat.freenode.net/?channels=web2py&#x27;)]</div></td></tr></table></div></td></tr><tr><td><div><table><tr><td><div>Plugins</div></td></tr><tr><td><div>False</div></td></tr><tr><td><div>None</div></td></tr><tr><td><div>[(&#x27;plugin_wiki&#x27;, False, &#x27;http://web2py.com/examples/default/download&#x27;), (&lt;lazyT &#x27;Other Plugins&#x27;&gt;, False, &#x27;http://web2py.com/plugins&#x27;), (&lt;lazyT &#x27;Layout Plugins&#x27;&gt;, False, &#x27;http://web2py.com/layouts&#x27;)]</div></td></tr></table></div></td></tr></table></div></td></tr></table></div></td></tr></table></div></td></tr><tr><td style="font-weight:bold;vertical-align:top;">meta</td><td style="vertical-align:top;">:</td><td><div><table><tr><td style="font-weight:bold;vertical-align:top;">author</td><td style="vertical-align:top;">:</td><td><div>Your Name &lt;you@example.com&gt;</div></td></tr><tr><td style="font-weight:bold;vertical-align:top;">generator</td><td style="vertical-align:top;">:</td><td><div>Web2py Web Framework</div></td></tr><tr><td style="font-weight:bold;vertical-align:top;">keywords</td><td style="vertical-align:top;">:</td><td><div>web2py, python, framework</div></td></tr></table></div></td></tr><tr><td style="font-weight:bold;vertical-align:top;">models_to_run</td><td style="vertical-align:top;">:</td><td><div><table><tr><td><div>^\\w+\\.py$</div></td></tr><tr><td><div>^default/\\w+\\.py$</div></td></tr><tr><td><div>^default/expenses/\\w+\\.py$</div></td></tr></table></div></td></tr><tr><td style="font-weight:bold;vertical-align:top;">postprocessing</td><td style="vertical-align:top;">:</td><td><div><table></table></div></td></tr><tr><td style="font-weight:bold;vertical-align:top;">session_client</td><td style="vertical-align:top;">:</td><td><div>127.0.0.1</div></td></tr><tr><td style="font-weight:bold;vertical-align:top;">session_cookie_compression_level</td><td style="vertical-align:top;">:</td><td><div>None</div></td></tr><tr><td style="font-weight:bold;vertical-align:top;">session_cookie_expires</td><td style="vertical-align:top;">:</td><td><div>None</div></td></tr><tr><td style="font-weight:bold;vertical-align:top;">session_cookie_key</td><td style="vertical-align:top;">:</td><td><div>None</div></td></tr><tr><td style="font-weight:bold;vertical-align:top;">session_data_name</td><td style="vertical-align:top;">:</td><td><div>session_data_money</div></td></tr><tr><td style="font-weight:bold;vertical-align:top;">session_file</td><td style="vertical-align:top;">:</td><td><div>&lt;open file &#x27;C:\\\\Users\\\\suporte_renato\\\\Downloads\\\\web2py\\\\applications\\\\money\\\\sessions\\\\08f\\\\11f\\\\127.0.0.1-3b9696b7-463d-46b0-a72b-aa1bddfddebe&#x27;, mode &#x27;rb+&#x27; at 0x07448020&gt;</div></td></tr><tr><td style="font-weight:bold;vertical-align:top;">session_filename</td><td style="vertical-align:top;">:</td><td><div>C:\\Users\\suporte_renato\\Downloads\\web2py\\applications\\money\\sessions\\127.0.0.1-3b9696b7-463d-46b0-a72b-aa1bddfddebe</div></td></tr><tr><td style="font-weight:bold;vertical-align:top;">session_hash</td><td style="vertical-align:top;">:</td><td><div>f5e143ce43e94f9e2663329d3e3dbcf2</div></td></tr><tr><td style="font-weight:bold;vertical-align:top;">session_id</td><td style="vertical-align:top;">:</td><td><div>127.0.0.1-3b9696b7-463d-46b0-a72b-aa1bddfddebe</div></td></tr><tr><td style="font-weight:bold;vertical-align:top;">session_id_name</td><td style="vertical-align:top;">:</td><td><div>session_id_money</div></td></tr><tr><td style="font-weight:bold;vertical-align:top;">session_locked</td><td style="vertical-align:top;">:</td><td><div>True</div></td></tr><tr><td style="font-weight:bold;vertical-align:top;">session_masterapp</td><td style="vertical-align:top;">:</td><td><div>money</div></td></tr><tr><td style="font-weight:bold;vertical-align:top;">session_new</td><td style="vertical-align:top;">:</td><td><div>False</div></td></tr><tr><td style="font-weight:bold;vertical-align:top;">session_storage_type</td><td style="vertical-align:top;">:</td><td><div>file</div></td></tr><tr><td style="font-weight:bold;vertical-align:top;">status</td><td style="vertical-align:top;">:</td><td><div>200</div></td></tr><tr><td style="font-weight:bold;vertical-align:top;">subtitle</td><td style="vertical-align:top;">:</td><td><div></div></td></tr><tr><td style="font-weight:bold;vertical-align:top;">title</td><td style="vertical-align:top;">:</td><td><div>Money</div></td></tr><tr><td style="font-weight:bold;vertical-align:top;">view</td><td style="vertical-align:top;">:</td><td><div>default/expenses.html</div></td></tr></table></div>'
tRp126
sS'locals'
p127
(dp128
S'Service'
p129
S"<class 'gluon.tools.Service'>"
p130
sS'OBJECT'
p131
S"<class 'gluon.html.OBJECT'>"
p132
sS'SQLDB'
p133
S"<class 'gluon.dal.DAL'>"
p134
sg119
S"<Storage {'_auth_next': None, 'flash': None, 'au...gin]': ['a1b165a7-a4b0-44b5-87db-3b52c0b65f13']}>"
p135
sS'LINK'
p136
S"<class 'gluon.html.LINK'>"
p137
sS'BR'
p138
S"<class 'gluon.html.BR'>"
p139
sS'local_import'
p140
S'<function <lambda>>'
p141
sS'OPTGROUP'
p142
S"<class 'gluon.html.OPTGROUP'>"
p143
sS'__package__'
p144
S'None'
p145
sS'PRE'
p146
S"<class 'gluon.html.PRE'>"
p147
sS'IS_INT_IN_RANGE'
p148
S"<class 'gluon.validators.IS_INT_IN_RANGE'>"
p149
sS'left_sidebar_enabled'
p150
S'False'
p151
sS'cur_values'
p152
S"{'bank': 0.0, 'savings': 0.0, 'wallet': 0.0}"
p153
sS'IS_LOWER'
p154
S"<class 'gluon.validators.IS_LOWER'>"
p155
sS'IS_STRONG'
p156
S"<class 'gluon.validators.IS_STRONG'>"
p157
sS'cache'
p158
S'<gluon.cache.Cache object>'
p159
sS'IS_IN_DB'
p160
S"<class 'gluon.validators.IS_IN_DB'>"
p161
sS'TAG'
p162
S'<gluon.html.__TAG__ object>'
p163
sS'SQLField'
p164
S"<class 'pydal.objects.Field'>"
p165
sS'mail'
p166
S'<gluon.tools.Mail object>'
p167
sS'BODY'
p168
S"<class 'gluon.html.BODY'>"
p169
sS'IS_DATE_IN_RANGE'
p170
S"<class 'gluon.validators.IS_DATE_IN_RANGE'>"
p171
sS'IFRAME'
p172
S"<class 'gluon.html.IFRAME'>"
p173
sS'URL'
p174
S'<function URL>'
p175
sS'__file__'
p176
S"r'C:\\Users\\suporte_renato\\Downloads\\web2py\\applications\\money\\views\\default/expenses.html'"
p177
sS'db'
p178
S'<DAL uri="sqlite://storage.sqlite">'
p179
sS'auth'
p180
S'<gluon.tools.Auth object>'
p181
sS'P'
S"<class 'gluon.html.P'>"
p182
sS'TFOOT'
p183
S"<class 'gluon.html.TFOOT'>"
p184
sS'XHTML'
p185
S"<class 'gluon.html.XHTML'>"
p186
sS'datetime'
p187
S"<module 'datetime' (built-in)>"
p188
sS'ON'
p189
S'True'
p190
sS'OL'
p191
S"<class 'gluon.html.OL'>"
p192
sS'success'
p193
g190
sS'TEXTAREA'
p194
S"<class 'gluon.html.TEXTAREA'>"
p195
sS'MENU'
p196
S"<class 'gluon.html.MENU'>"
p197
sS'IS_IMAGE'
p198
S"<class 'gluon.validators.IS_IMAGE'>"
p199
sS'EM'
p200
S"<class 'gluon.html.EM'>"
p201
sS'CODE'
p202
S"<class 'gluon.html.CODE'>"
p203
sS'HTTP'
p204
S"<class 'gluon.http.HTTP'>"
p205
sS'HR'
p206
S"<class 'gluon.html.HR'>"
p207
sS'IS_DATETIME'
p208
S"<class 'gluon.validators.IS_DATETIME'>"
p209
sS'STYLE'
p210
S"<class 'gluon.html.STYLE'>"
p211
sS'LABEL'
p212
S"<class 'gluon.html.LABEL'>"
p213
sS'CLEANUP'
p214
S"<class 'gluon.validators.CLEANUP'>"
p215
sS'plugins'
p216
S'<gluon.tools.PluginManager object>'
p217
sS'SELECT'
p218
S"<class 'gluon.html.SELECT'>"
p219
sS'use_janrain'
p220
S'<function use_janrain>'
p221
sS'CENTER'
p222
S"<class 'gluon.html.CENTER'>"
p223
sS'Auth'
p224
S"<class 'gluon.tools.Auth'>"
p225
sS'DEVELOPMENT_MENU'
p226
g190
sS'__builtins__'
p227
S"{'ArithmeticError': <type 'exceptions.ArithmeticError'>, 'AssertionError': <type 'exceptions.AssertionError'>, 'AttributeError': <type 'exceptions.AttributeError'>, 'BaseException': <type 'exceptions.BaseException'>, 'BufferError': <type 'exceptions.BufferError'>, 'BytesWarning': <type 'exceptions.BytesWarning'>, 'DeprecationWarning': <type 'exceptions.DeprecationWarning'>, 'EOFError': <type 'exceptions.EOFError'>, 'Ellipsis': Ellipsis, 'EnvironmentError': <type 'exceptions.EnvironmentError'>, ...}"
p228
sS'HTML'
p229
S"<class 'gluon.html.HTML'>"
p230
sS'SQLFORM'
p231
S"<class 'gluon.sqlhtml.SQLFORM'>"
p232
sS'LOAD'
p233
S'<function LOAD>'
p234
sS'redirect'
p235
S'<function redirect>'
p236
sS'FIELDSET'
p237
S"<class 'gluon.html.FIELDSET'>"
p238
sS'IS_EQUAL_TO'
p239
S"<class 'gluon.validators.IS_EQUAL_TO'>"
p240
sS'embed64'
p241
S'<function embed64>'
p242
sS'IS_LIST_OF'
p243
S"<class 'gluon.validators.IS_LIST_OF'>"
p244
sS'INPUT'
p245
S"<class 'gluon.html.INPUT'>"
p246
sS'EMBED'
p247
S"<class 'gluon.html.EMBED'>"
p248
sS'_'
S'<function _>'
p249
sS'H2'
p250
S"<class 'gluon.html.H2'>"
p251
sS'H3'
p252
S"<class 'gluon.html.H3'>"
p253
sS'BUTTON'
p254
S"<class 'gluon.html.BUTTON'>"
p255
sS'H1'
p256
S"<class 'gluon.html.H1'>"
p257
sS'H6'
p258
S"<class 'gluon.html.H6'>"
p259
sS'somas'
p260
S"{'credit': 49.0, 'debit': 327.5, 'money': 390.85}"
p261
sS'H4'
p262
S"<class 'gluon.html.H4'>"
p263
sS'H5'
p264
S"<class 'gluon.html.H5'>"
p265
sS'UL'
p266
S"<class 'gluon.html.UL'>"
p267
sS'IS_UPPER'
p268
S"<class 'gluon.validators.IS_UPPER'>"
p269
sS'xmlescape'
p270
S'<function xmlescape>'
p271
sS'IS_TIME'
p272
S"<class 'gluon.validators.IS_TIME'>"
p273
sS'OPTION'
p274
S"<class 'gluon.html.OPTION'>"
p275
sS'TITLE'
p276
S"<class 'gluon.html.TITLE'>"
p277
sS'CRYPT'
p278
S"<class 'gluon.validators.CRYPT'>"
p279
sS'IS_EMPTY_OR'
p280
S"<class 'gluon.validators.IS_EMPTY_OR'>"
p281
sS'MARKMIN'
p282
S"<class 'gluon.html.MARKMIN'>"
p283
sS'__name__'
p284
S"'__restricted__'"
p285
sS'message'
p286
S"''"
p287
sS'STRONG'
p288
S"<class 'gluon.html.STRONG'>"
p289
sS'COL'
p290
S"<class 'gluon.html.COL'>"
p291
sS'service'
p292
S'<gluon.tools.Service object>'
p293
sS'appname'
p294
S"'Money Manager'"
p295
sS'IS_NOT_EMPTY'
p296
S"<class 'gluon.validators.IS_NOT_EMPTY'>"
p297
sS'TABLE'
p298
S"<class 'gluon.html.TABLE'>"
p299
sS'IS_IPV4'
p300
S"<class 'gluon.validators.IS_IPV4'>"
p301
sS'IS_LENGTH'
p302
S"<class 'gluon.validators.IS_LENGTH'>"
p303
sS'IS_IPV6'
p304
S"<class 'gluon.validators.IS_IPV6'>"
p305
sS'XML'
p306
S"<class 'gluon.html.XML'>"
p307
sS'B'
S"<class 'gluon.html.B'>"
p308
sS'IMG'
p309
S"<class 'gluon.html.IMG'>"
p310
sS'SQLTABLE'
p311
S"<class 'gluon.sqlhtml.SQLTABLE'>"
p312
sS'IS_MATCH'
p313
S"<class 'gluon.validators.IS_MATCH'>"
p314
sS'IS_ALPHANUMERIC'
p315
S"<class 'gluon.validators.IS_ALPHANUMERIC'>"
p316
sS'cur_year'
p317
S'2015'
p318
sS'CAT'
p319
S"<class 'gluon.html.CAT'>"
p320
sS'SPAN'
p321
S"<class 'gluon.html.SPAN'>"
p322
sS'IS_JSON'
p323
S"<class 'gluon.validators.IS_JSON'>"
p324
sS'IS_IPADDRESS'
p325
S"<class 'gluon.validators.IS_IPADDRESS'>"
p326
sS'IS_SLUG'
p327
S"<class 'gluon.validators.IS_SLUG'>"
p328
sS'BEAUTIFY'
p329
S"<class 'gluon.html.BEAUTIFY'>"
p330
sS'META'
p331
S"<class 'gluon.html.META'>"
p332
sS'year_list'
p333
S'[2010, 2011, 2012, 2013, 2014, 2015]'
p334
sS'IS_DATE'
p335
S"<class 'gluon.validators.IS_DATE'>"
p336
sS'IS_EMAIL'
p337
S"<class 'gluon.validators.IS_EMAIL'>"
p338
sS'cur_month'
p339
S'3'
sS'IS_FLOAT_IN_RANGE'
p340
S"<class 'gluon.validators.IS_FLOAT_IN_RANGE'>"
p341
sS'TBODY'
p342
S"<class 'gluon.html.TBODY'>"
p343
sS'expenses'
p344
S'<Rows (18)>'
p345
sS'Field'
p346
S"<class 'pydal.objects.Field'>"
p347
sS'IS_LIST_OF_EMAILS'
p348
S"<class 'gluon.validators.IS_LIST_OF_EMAILS'>"
p349
sS'middle_columns'
p350
S"'span12'"
p351
sS'DIV'
p352
S"<class 'gluon.html.DIV'>"
p353
sS'LEGEND'
p354
S"<class 'gluon.html.LEGEND'>"
p355
sS'COLGROUP'
p356
S"<class 'gluon.html.COLGROUP'>"
p357
sS'DAL'
p358
S"<class 'gluon.dal.DAL'>"
p359
sS'ASSIGNJS'
p360
S'<function ASSIGNJS>'
p361
sS'TR'
p362
S"<class 'gluon.html.TR'>"
p363
sS'LI'
p364
S"<class 'gluon.html.LI'>"
p365
sS'right_sidebar_enabled'
p366
g151
sS'TH'
p367
S"<class 'gluon.html.TH'>"
p368
sS'SCRIPT'
p369
S"<class 'gluon.html.SCRIPT'>"
p370
sS'TD'
p371
S"<class 'gluon.html.TD'>"
p372
sS'PluginManager'
p373
S"<class 'gluon.tools.PluginManager'>"
p374
sS'IS_URL'
p375
S"<class 'gluon.validators.IS_URL'>"
p376
sS'A'
S"<class 'gluon.html.A'>"
p377
sS'HEAD'
p378
S"<class 'gluon.html.HEAD'>"
p379
sS'IS_DATETIME_IN_RANGE'
p380
S"<class 'gluon.validators.IS_DATETIME_IN_RANGE'>"
p381
sS'FORM'
p382
S"<class 'gluon.html.FORM'>"
p383
sS'I'
S"<class 'gluon.html.I'>"
p384
sS'IS_NOT_IN_DB'
p385
S"<class 'gluon.validators.IS_NOT_IN_DB'>"
p386
sg125
S"<Storage {'body': <cStringIO.StringO object at 0...at 0x074623F0>, 'view': 'default/expenses.html'}>"
p387
sS'THEAD'
p388
S"<class 'gluon.html.THEAD'>"
p389
sS'ANY_OF'
p390
S"<class 'gluon.validators.ANY_OF'>"
p391
sS'IS_NULL_OR'
p392
S"<class 'gluon.validators.IS_EMPTY_OR'>"
p393
sg56
S"<Storage {'_vars': <Storage {}>, 'function': 'ex...nato\\\\Downloads\\\\web2py\\\\applications\\\\money\\\\'}>"
p394
sS'IS_EXPR'
p395
S"<class 'gluon.validators.IS_EXPR'>"
p396
sS'T'
S'<gluon.languages.translator object>'
p397
sS'IS_IN_SET'
p398
S"<class 'gluon.validators.IS_IN_SET'>"
p399
sS'IS_UPLOAD_FILENAME'
p400
S"<class 'gluon.validators.IS_UPLOAD_FILENAME'>"
p401
sS'TT'
p402
S"<class 'gluon.html.TT'>"
p403
sS'IS_DECIMAL_IN_RANGE'
p404
S"<class 'gluon.validators.IS_DECIMAL_IN_RANGE'>"
p405
sssS'traceback'
p406
S'Traceback (most recent call last):\n  File "C:\\Users\\suporte_renato\\Downloads\\web2py\\gluon\\restricted.py", line 224, in restricted\n    exec ccode in environment\n  File "C:\\Users\\suporte_renato\\Downloads\\web2py\\applications\\money\\views\\default/expenses.html", line 73, in <module>\n    {{for expense in expenses:}}\nKeyError: \'account\'\n'
p407
s.