(dp1
S'output'
p2
S"<type 'exceptions.NameError'> name 'message' is not defined"
p3
sS'layer'
p4
S'C:\\Users\\suporte_renato\\Downloads\\web2py\\applications\\money\\views\\default/index.html'
p5
sS'code'
p6
S'response.write(\'<html>\\r\\n    <head>\\r\\n        <!-- Latest compiled and minified CSS -->\\r\\n        <link rel="stylesheet" href="http://maxcdn.bootstrapcdn.com/bootstrap/3.2.0/css/bootstrap.min.css">\\r\\n\\r\\n        <!-- jQuery library -->\\r\\n        <script src="https://ajax.googleapis.com/ajax/libs/jquery/1.11.1/jquery.min.js"></script>\\r\\n\\r\\n        <!-- Latest compiled JavaScript -->\\r\\n        <script src="http://maxcdn.bootstrapcdn.com/bootstrap/3.2.0/js/bootstrap.min.js"></script>\\r\\n        <!--<script type="text" language="javascript">-->\\r\\n        <script>\\r\\n            function show_form(formid) {\\r\\n                document.getElementById(formid).style.display = "inline";\\r\\n            }\\r\\n            function hide_form(formid) {\\r\\n                document.getElementById(formid).style.display = "none";\\r\\n            }\\r\\n            function activate(listobj) {\\r\\n                var objs = document.getElementsByTagName("li");\\r\\n                var i;\\r\\n                for(i = 0; i < objs.length; i++) {\\r\\n                    objs[i].className = "inactive";\\r\\n                }\\r\\n                listobj.className = "active";\\r\\n            }\\r\\n        </script>\\r\\n        <title>My Expenses</title>\\r\\n    </head>\\r\\n    <body>\\r\\n        <div class="container">\\r\\n            <div class="jumbotron">\\r\\n                <h1>Bootstrap Tutorial</h1>\\r\\n            </div>\\r\\n            <ul class="nav nav-tabs">\\r\\n                \', escape=False)\nli_class = \'active\'\nresponse.write(\'\\r\\n                \', escape=False)\nfor mes in [\'Janeiro\',\'Fevereiro\',\'Mar\xc3\xa7o\',\'Abril\',\'Maio\',\'Junho\',\'Julho\',\'Agosto\',\'Setembro\',\'Outubro\',\'Novembro\',\'Dezembro\']:\n    response.write(\'\\r\\n                <li class="\', escape=False)\n    response.write(li_class)\n    response.write(\'" id="li-\', escape=False)\n    response.write(mes)\n    response.write(\'" onclick="activate(this)"><a href="#">\', escape=False)\n    response.write(mes)\n    response.write(\'</a></li>\\r\\n                \', escape=False)\n    if li_class == \'active\': li_class=\'inactive\'\n    response.write(\'\\r\\n                \', escape=False)\n    pass\nresponse.write(\'\\r\\n            </ul>\\r\\n        </div>\\r\\n        <div class="container">\\r\\n                <div class="table-responsive">\\r\\n                    <table class="table table-hover">\\r\\n                        <thead>\\r\\n                            <tr>\\r\\n                                <th colspan="1">Descri&ccedil;&atilde;o</th>\\r\\n                                <th>Tipo</th>\\r\\n                                <th>Valor</th>\\r\\n                                <th>Forma de Pagamento</th>\\r\\n                            </tr>\\r\\n                        </thead>\\r\\n                        <tbody>\\r\\n                            \', escape=False)\nif success:\n    response.write(\'\\r\\n                            \', escape=False)\n    for expense in expenses:\n        response.write(\'\\r\\n                            <tr>\\r\\n                                <td style="display:none">\', escape=False)\n        response.write(expense.id)\n        response.write(\'</td>\\r\\n                                <td>\', escape=False)\n        response.write(expense.e_description)\n        response.write(\'</td>\\r\\n                                <td>\', escape=False)\n        response.write(expense.e_type)\n        response.write(\'</td>\\r\\n                                <td>\', escape=False)\n        response.write(expense.e_value)\n        response.write(\'</td>\\r\\n                                <td>\', escape=False)\n        response.write(expense.e_payment)\n        response.write(\'</td>\\r\\n                            </tr>\\r\\n                            \', escape=False)\n        pass\n    response.write(\'\\r\\n                            \', escape=False)\nelse:\n    response.write(\'\\r\\n                            <tr><td colspan="4">\', escape=False)\n    response.write(message)\n    response.write(\'</td></tr>\\r\\n                            \', escape=False)\n    pass\nresponse.write(\'\\r\\n                        </tbody>\\r\\n                    </table>\\r\\n                </div>\\r\\n        </div>\\r\\n        <div class="container">\\r\\n            <button type="button" class="btn btn-primary" onclick="show_form(\\\'new_expense\\\')">Inserir despesa</button>\\r\\n            <div class="container" style="display:none" id="new_expense">\\r\\n                <form method="post" action="money" id="myform">\\r\\n                    <div class="table-responsive">\\r\\n                        <table class="table">\\r\\n                            <thead>\\r\\n                                <tr>\\r\\n                                    <th>Descri&ccedil;&atilde;o</th>\\r\\n                                    <th>Tipo</th>\\r\\n                                    <th>Valor</th>\\r\\n                                    <th>Forma de pagamento</th>\\r\\n                                </tr>\\r\\n                            </thead>\\r\\n                            <tbody>\\r\\n                                <tr>\\r\\n                                    <td><input type="text" name="e_description" id="e_description" /></td>\\r\\n                                    <td><input type="text" name="e_type" id="e_type" /></td>\\r\\n                                    <td><input type="text" name="e_value" id="e_value" /></td>\\r\\n                                    <td>\\r\\n                                        <select class="form-control" name="e_payment" id="e_payment">\\r\\n                                            <option>Cart&atilde;o de Cr&eacute;dito</option>\\r\\n                                            <option>Cart&atilde;o de D&eacute;bito</option>\\r\\n                                            <option>Dinheiro</option>\\r\\n                                        </select>\\r\\n                                    </td>\\r\\n                                </tr>\\r\\n                            </tbody>\\r\\n                        </table>\\r\\n                    </div>\\r\\n                    <div class="container">\\r\\n                        <button type="button" class="btn btn-primary" onclick="myform.submit()">Enviar Dados</button>\\r\\n                        <button type="button" class="btn btn-primary" onclick="hide_form(\\\'myform\\\')">Cancelar</button>\\r\\n                    </div>\\r\\n                    <input type="hidden" name="is_submition" value="true" />\\r\\n                </form>\\r\\n            </div>\\r\\n        </div>\\r\\n    </body>\\r\\n</html>\\r\\n\', escape=False)'
p7
sS'snapshot'
p8
(dp9
S'exception'
p10
(dp11
S'__hash__'
p12
S"<method-wrapper '__hash__' of exceptions.NameError object>"
p13
sS'__setattr__'
p14
S"<method-wrapper '__setattr__' of exceptions.NameError object>"
p15
sS'__reduce_ex__'
p16
S'<built-in method __reduce_ex__ of exceptions.NameError object>'
p17
sS'__getslice__'
p18
S"<method-wrapper '__getslice__' of exceptions.NameError object>"
p19
sS'__getitem__'
p20
S"<method-wrapper '__getitem__' of exceptions.NameError object>"
p21
sS'__setstate__'
p22
S'<built-in method __setstate__ of exceptions.NameError object>'
p23
sS'__reduce__'
p24
S'<built-in method __reduce__ of exceptions.NameError object>'
p25
sS'__str__'
p26
S"<method-wrapper '__str__' of exceptions.NameError object>"
p27
sS'__format__'
p28
S'<built-in method __format__ of exceptions.NameError object>'
p29
sS'__getattribute__'
p30
S"<method-wrapper '__getattribute__' of exceptions.NameError object>"
p31
sS'__class__'
p32
S"<type 'exceptions.NameError'>"
p33
sS'__unicode__'
p34
S'<built-in method __unicode__ of exceptions.NameError object>'
p35
sS'__delattr__'
p36
S"<method-wrapper '__delattr__' of exceptions.NameError object>"
p37
sS'__subclasshook__'
p38
S'<built-in method __subclasshook__ of type object>'
p39
sS'__repr__'
p40
S"<method-wrapper '__repr__' of exceptions.NameError object>"
p41
sS'args'
p42
S'("name \'message\' is not defined",)'
p43
sS'__dict__'
p44
S'{}'
p45
sS'__sizeof__'
p46
S'<built-in method __sizeof__ of exceptions.NameError object>'
p47
sS'__doc__'
p48
S"'Name not found globally.'"
p49
sS'__init__'
p50
S"<method-wrapper '__init__' of exceptions.NameError object>"
p51
sS'__new__'
p52
S'<built-in method __new__ of type object>'
p53
ssS'evalue'
p54
S"name 'message' is not defined"
p55
sS'request'
p56
cgluon.html
XML_unpickle
p57
(S's\x00\\\x00\x00<div><table><tr><td style="font-weight:bold;vertical-align:top;">ajax</td><td style="vertical-align:top;">:</td><td><div>False</div></td></tr><tr><td style="font-weight:bold;vertical-align:top;">application</td><td style="vertical-align:top;">:</td><td><div>money</div></td></tr><tr><td style="font-weight:bold;vertical-align:top;">args</td><td style="vertical-align:top;">:</td><td><div><table></table></div></td></tr><tr><td style="font-weight:bold;vertical-align:top;">cid</td><td style="vertical-align:top;">:</td><td><div>None</div></td></tr><tr><td style="font-weight:bold;vertical-align:top;">client</td><td style="vertical-align:top;">:</td><td><div>127.0.0.1</div></td></tr><tr><td style="font-weight:bold;vertical-align:top;">controller</td><td style="vertical-align:top;">:</td><td><div>default</div></td></tr><tr><td style="font-weight:bold;vertical-align:top;">cookies</td><td style="vertical-align:top;">:</td><td><div><table><tr><td style="font-weight:bold;vertical-align:top;">session_id_admin</td><td style="vertical-align:top;">:</td><td><div>127.0.0.1-967ea7d4-647f-4778-9e62-0106df38c0f8<table><tr><td style="font-weight:bold;vertical-align:top;">comment</td><td style="vertical-align:top;">:</td><td><div></div></td></tr><tr><td style="font-weight:bold;vertical-align:top;">domain</td><td style="vertical-align:top;">:</td><td><div></div></td></tr><tr><td style="font-weight:bold;vertical-align:top;">expires</td><td style="vertical-align:top;">:</td><td><div></div></td></tr><tr><td style="font-weight:bold;vertical-align:top;">httponly</td><td style="vertical-align:top;">:</td><td><div></div></td></tr><tr><td style="font-weight:bold;vertical-align:top;">max-age</td><td style="vertical-align:top;">:</td><td><div></div></td></tr><tr><td style="font-weight:bold;vertical-align:top;">path</td><td style="vertical-align:top;">:</td><td><div></div></td></tr><tr><td style="font-weight:bold;vertical-align:top;">secure</td><td style="vertical-align:top;">:</td><td><div></div></td></tr><tr><td style="font-weight:bold;vertical-align:top;">version</td><td style="vertical-align:top;">:</td><td><div></div></td></tr></table></div></td></tr><tr><td style="font-weight:bold;vertical-align:top;">session_id_money</td><td style="vertical-align:top;">:</td><td><div>127.0.0.1-d8952163-f092-4852-8174-8a1889360426<table><tr><td style="font-weight:bold;vertical-align:top;">comment</td><td style="vertical-align:top;">:</td><td><div></div></td></tr><tr><td style="font-weight:bold;vertical-align:top;">domain</td><td style="vertical-align:top;">:</td><td><div></div></td></tr><tr><td style="font-weight:bold;vertical-align:top;">expires</td><td style="vertical-align:top;">:</td><td><div></div></td></tr><tr><td style="font-weight:bold;vertical-align:top;">httponly</td><td style="vertical-align:top;">:</td><td><div></div></td></tr><tr><td style="font-weight:bold;vertical-align:top;">max-age</td><td style="vertical-align:top;">:</td><td><div></div></td></tr><tr><td style="font-weight:bold;vertical-align:top;">path</td><td style="vertical-align:top;">:</td><td><div></div></td></tr><tr><td style="font-weight:bold;vertical-align:top;">secure</td><td style="vertical-align:top;">:</td><td><div></div></td></tr><tr><td style="font-weight:bold;vertical-align:top;">version</td><td style="vertical-align:top;">:</td><td><div></div></td></tr></table></div></td></tr></table></div></td></tr><tr><td style="font-weight:bold;vertical-align:top;">env</td><td style="vertical-align:top;">:</td><td><div><table><tr><td style="font-weight:bold;vertical-align:top;">HTTP_ACCEPT</td><td style="vertical-align:top;">:</td><td><div>text/html,application/xhtml+xml,application/xml;q=0.9,*/*;q=0.8</div></td></tr><tr><td style="font-weight:bold;vertical-align:top;">HTTP_ACCEPT_ENCODING</td><td style="vertical-align:top;">:</td><td><div>gzip, deflate</div></td></tr><tr><td style="font-weight:bold;vertical-align:top;">HTTP_ACCEPT_LANGUAGE</td><td style="vertical-align:top;">:</td><td><div>pt-BR,pt;q=0.8,en-US;q=0.5,en;q=0.3</div></td></tr><tr><td style="font-weight:bold;vertical-align:top;">HTTP_CACHE_CONTROL</td><td style="vertical-align:top;">:</td><td><div>no-cache</div></td></tr><tr><td style="font-weight:bold;vertical-align:top;">HTTP_CONNECTION</td><td style="vertical-align:top;">:</td><td><div>keep-alive</div></td></tr><tr><td style="font-weight:bold;vertical-align:top;">HTTP_COOKIE</td><td style="vertical-align:top;">:</td><td><div>session_id_money=127.0.0.1-d8952163-f092-4852-8174-8a1889360426; session_id_admin=127.0.0.1-967ea7d4-647f-4778-9e62-0106df38c0f8</div></td></tr><tr><td style="font-weight:bold;vertical-align:top;">HTTP_DNT</td><td style="vertical-align:top;">:</td><td><div>1</div></td></tr><tr><td style="font-weight:bold;vertical-align:top;">HTTP_HOST</td><td style="vertical-align:top;">:</td><td><div>localhost:8000</div></td></tr><tr><td style="font-weight:bold;vertical-align:top;">HTTP_PRAGMA</td><td style="vertical-align:top;">:</td><td><div>no-cache</div></td></tr><tr><td style="font-weight:bold;vertical-align:top;">HTTP_USER_AGENT</td><td style="vertical-align:top;">:</td><td><div>Mozilla/5.0 (Windows NT 6.1; rv:36.0) Gecko/20100101 Firefox/36.0</div></td></tr><tr><td style="font-weight:bold;vertical-align:top;">PATH_INFO</td><td style="vertical-align:top;">:</td><td><div>/money</div></td></tr><tr><td style="font-weight:bold;vertical-align:top;">QUERY_STRING</td><td style="vertical-align:top;">:</td><td><div></div></td></tr><tr><td style="font-weight:bold;vertical-align:top;">REMOTE_ADDR</td><td style="vertical-align:top;">:</td><td><div>127.0.0.1</div></td></tr><tr><td style="font-weight:bold;vertical-align:top;">REMOTE_PORT</td><td style="vertical-align:top;">:</td><td><div>50089</div></td></tr><tr><td style="font-weight:bold;vertical-align:top;">REQUEST_METHOD</td><td style="vertical-align:top;">:</td><td><div>GET</div></td></tr><tr><td style="font-weight:bold;vertical-align:top;">SCRIPT_NAME</td><td style="vertical-align:top;">:</td><td><div></div></td></tr><tr><td style="font-weight:bold;vertical-align:top;">SERVER_NAME</td><td style="vertical-align:top;">:</td><td><div>NTIGER</div></td></tr><tr><td style="font-weight:bold;vertical-align:top;">SERVER_PORT</td><td style="vertical-align:top;">:</td><td><div>8000</div></td></tr><tr><td style="font-weight:bold;vertical-align:top;">SERVER_PROTOCOL</td><td style="vertical-align:top;">:</td><td><div>HTTP/1.1</div></td></tr><tr><td style="font-weight:bold;vertical-align:top;">SERVER_SOFTWARE</td><td style="vertical-align:top;">:</td><td><div>Rocket 1.2.6</div></td></tr><tr><td style="font-weight:bold;vertical-align:top;">app_folders</td><td style="vertical-align:top;">:</td><td><div>set([&#x27;C:\\\\Users\\\\suporte_renato\\\\Downloads\\\\web2py\\\\applications\\\\welcome\\\\&#x27;, &#x27;C:\\\\Users\\\\suporte_renato\\\\Downloads\\\\web2py\\\\applications\\\\myapp\\\\&#x27;, &#x27;C:\\\\Users\\\\suporte_renato\\\\Downloads\\\\web2py\\\\applications\\\\admin\\\\&#x27;, &#x27;C:\\\\Users\\\\suporte_renato\\\\Downloads\\\\web2py\\\\applications\\\\money\\\\&#x27;])</div></td></tr><tr><td style="font-weight:bold;vertical-align:top;">applications_parent</td><td style="vertical-align:top;">:</td><td><div>C:\\Users\\suporte_renato\\Downloads\\web2py</div></td></tr><tr><td style="font-weight:bold;vertical-align:top;">cmd_args</td><td style="vertical-align:top;">:</td><td><div><table></table></div></td></tr><tr><td style="font-weight:bold;vertical-align:top;">cmd_options</td><td style="vertical-align:top;">:</td><td><div>&lt;Values at 0x24f2eb8: {&#x27;verbose&#x27;: False, &#x27;ip&#x27;: &#x27;127.0.0.1&#x27;, &#x27;debuglevel&#x27;: 30, &#x27;with_scheduler&#x27;: False, &#x27;ips&#x27;: [&#x27;2002:96a4:5d43::96a4:5d43&#x27;, &#x27;10.0.0.1&#x27;, &#x27;150.164.93.67&#x27;, &#x27;fe80::cd79:83e4:3298:eed0%15&#x27;, &#x27;fe80::7979:717f:e060:3b2%12&#x27;, &#x27;172.16.2.99&#x27;], &#x27;shutdown_timeout&#x27;: 5, &#x27;taskbar&#x27;: False, &#x27;with_coverage&#x27;: False, &#x27;scheduler_groups&#x27;: None, &#x27;port&#x27;: 8000, &#x27;maxthreads&#x27;: None, &#x27;softcron&#x27;: False, &#x27;server_name&#x27;: &#x27;NTIGER&#x27;, &#x27;bpython&#x27;: False, &#x27;nogui&#x27;: False, &#x27;pid_filename&#x27;: &#x27;httpserver.pid&#x27;, &#x27;extcron&#x27;: False, &#x27;runcron&#x27;: False, &#x27;run_system_tests&#x27;: False, &#x27;test&#x27;: None, &#x27;folder&#x27;: &#x27;C:\\\\Users\\\\suporte_renato\\\\Downloads\\\\web2py&#x27;, &#x27;config&#x27;: &#x27;&#x27;, &#x27;minthreads&#x27;: None, &#x27;shell&#x27;: None, &#x27;run&#x27;: &#x27;&#x27;, &#x27;log_filename&#x27;: &#x27;httpserver.log&#x27;, &#x27;profiler_dir&#x27;: None, &#x27;args&#x27;: [&#x27;&#x27;], &#x27;socket_timeout&#x27;: 5, &#x27;ssl_ca_certificate&#x27;: None, &#x27;scheduler&#x27;: None, &#x27;interfaces&#x27;: None, &#x27;ssl_private_key&#x27;: &#x27;&#x27;, &#x27;gae&#x27;: None, &#x27;password&#x27;: &#x27;&lt;ask&gt;&#x27;, &#x27;request_queue_size&#x27;: 5, &#x27;ssl_certificate&#x27;: &#x27;&#x27;, &#x27;cronjob&#x27;: False, &#x27;numthreads&#x27;: None, &#x27;quiet&#x27;: False, &#x27;import_models&#x27;: False, &#x27;timeout&#x27;: 10, &#x27;plain&#x27;: False, &#x27;nobanner&#x27;: False}&gt;</div></td></tr><tr><td style="font-weight:bold;vertical-align:top;">db_sessions</td><td style="vertical-align:top;">:</td><td><div>set([])</div></td></tr><tr><td style="font-weight:bold;vertical-align:top;">debugging</td><td style="vertical-align:top;">:</td><td><div>True</div></td></tr><tr><td style="font-weight:bold;vertical-align:top;">gluon_parent</td><td style="vertical-align:top;">:</td><td><div>C:\\Users\\suporte_renato\\Downloads\\web2py</div></td></tr><tr><td style="font-weight:bold;vertical-align:top;">http_accept</td><td style="vertical-align:top;">:</td><td><div>text/html,application/xhtml+xml,application/xml;q=0.9,*/*;q=0.8</div></td></tr><tr><td style="font-weight:bold;vertical-align:top;">http_accept_encoding</td><td style="vertical-align:top;">:</td><td><div>gzip, deflate</div></td></tr><tr><td style="font-weight:bold;vertical-align:top;">http_accept_language</td><td style="vertical-align:top;">:</td><td><div>pt-BR,pt;q=0.8,en-US;q=0.5,en;q=0.3</div></td></tr><tr><td style="font-weight:bold;vertical-align:top;">http_cache_control</td><td style="vertical-align:top;">:</td><td><div>no-cache</div></td></tr><tr><td style="font-weight:bold;vertical-align:top;">http_connection</td><td style="vertical-align:top;">:</td><td><div>keep-alive</div></td></tr><tr><td style="font-weight:bold;vertical-align:top;">http_cookie</td><td style="vertical-align:top;">:</td><td><div>session_id_money=127.0.0.1-d8952163-f092-4852-8174-8a1889360426; session_id_admin=127.0.0.1-967ea7d4-647f-4778-9e62-0106df38c0f8</div></td></tr><tr><td style="font-weight:bold;vertical-align:top;">http_dnt</td><td style="vertical-align:top;">:</td><td><div>1</div></td></tr><tr><td style="font-weight:bold;vertical-align:top;">http_host</td><td style="vertical-align:top;">:</td><td><div>localhost:8000</div></td></tr><tr><td style="font-weight:bold;vertical-align:top;">http_pragma</td><td style="vertical-align:top;">:</td><td><div>no-cache</div></td></tr><tr><td style="font-weight:bold;vertical-align:top;">http_user_agent</td><td style="vertical-align:top;">:</td><td><div>Mozilla/5.0 (Windows NT 6.1; rv:36.0) Gecko/20100101 Firefox/36.0</div></td></tr><tr><td style="font-weight:bold;vertical-align:top;">is_jython</td><td style="vertical-align:top;">:</td><td><div>False</div></td></tr><tr><td style="font-weight:bold;vertical-align:top;">is_pypy</td><td style="vertical-align:top;">:</td><td><div>False</div></td></tr><tr><td style="font-weight:bold;vertical-align:top;">is_source</td><td style="vertical-align:top;">:</td><td><div>False</div></td></tr><tr><td style="font-weight:bold;vertical-align:top;">local_hosts</td><td style="vertical-align:top;">:</td><td><div><table><tr><td><div>2002:96a4:5d43::96a4:5d43</div></td></tr><tr><td><div>10.0.0.1</div></td></tr><tr><td><div>NTIGER</div></td></tr><tr><td><div>::ffff:127.0.0.1</div></td></tr><tr><td><div>::1</div></td></tr><tr><td><div>150.164.93.67</div></td></tr><tr><td><div>fe80::7979:717f:e060:3b2%12</div></td></tr><tr><td><div>fe80::cd79:83e4:3298:eed0%15</div></td></tr><tr><td><div>172.16.2.99</div></td></tr><tr><td><div>127.0.0.1</div></td></tr></table></div></td></tr><tr><td style="font-weight:bold;vertical-align:top;">path_info</td><td style="vertical-align:top;">:</td><td><div>/money</div></td></tr><tr><td style="font-weight:bold;vertical-align:top;">query_string</td><td style="vertical-align:top;">:</td><td><div></div></td></tr><tr><td style="font-weight:bold;vertical-align:top;">remote_addr</td><td style="vertical-align:top;">:</td><td><div>127.0.0.1</div></td></tr><tr><td style="font-weight:bold;vertical-align:top;">remote_port</td><td style="vertical-align:top;">:</td><td><div>50089</div></td></tr><tr><td style="font-weight:bold;vertical-align:top;">request_method</td><td style="vertical-align:top;">:</td><td><div>GET</div></td></tr><tr><td style="font-weight:bold;vertical-align:top;">request_uri</td><td style="vertical-align:top;">:</td><td><div>/money</div></td></tr><tr><td style="font-weight:bold;vertical-align:top;">script_name</td><td style="vertical-align:top;">:</td><td><div></div></td></tr><tr><td style="font-weight:bold;vertical-align:top;">server_name</td><td style="vertical-align:top;">:</td><td><div>NTIGER</div></td></tr><tr><td style="font-weight:bold;vertical-align:top;">server_port</td><td style="vertical-align:top;">:</td><td><div>8000</div></td></tr><tr><td style="font-weight:bold;vertical-align:top;">server_protocol</td><td style="vertical-align:top;">:</td><td><div>HTTP/1.1</div></td></tr><tr><td style="font-weight:bold;vertical-align:top;">server_software</td><td style="vertical-align:top;">:</td><td><div>Rocket 1.2.6</div></td></tr><tr><td style="font-weight:bold;vertical-align:top;">web2py_path</td><td style="vertical-align:top;">:</td><td><div>C:\\Users\\suporte_renato\\Downloads\\web2py</div></td></tr><tr><td style="font-weight:bold;vertical-align:top;">web2py_version</td><td style="vertical-align:top;">:</td><td><div>2.9.12-stable+timestamp.2015.02.15.23.04.25</div></td></tr><tr><td style="font-weight:bold;vertical-align:top;">wsgi.errors</td><td style="vertical-align:top;">:</td><td><div>&lt;open file &#x27;&lt;stderr&gt;&#x27;, mode &#x27;w&#x27; at 0x0130D0D0&gt;</div></td></tr><tr><td style="font-weight:bold;vertical-align:top;">wsgi.file_wrapper</td><td style="vertical-align:top;">:</td><td><div>&lt;class wsgiref.util.FileWrapper at 0x01F877A0&gt;</div></td></tr><tr><td style="font-weight:bold;vertical-align:top;">wsgi.input</td><td style="vertical-align:top;">:</td><td><div>&lt;socket._fileobject object at 0x07A33D30&gt;</div></td></tr><tr><td style="font-weight:bold;vertical-align:top;">wsgi.multiprocess</td><td style="vertical-align:top;">:</td><td><div>False</div></td></tr><tr><td style="font-weight:bold;vertical-align:top;">wsgi.multithread</td><td style="vertical-align:top;">:</td><td><div>True</div></td></tr><tr><td style="font-weight:bold;vertical-align:top;">wsgi.run_once</td><td style="vertical-align:top;">:</td><td><div>False</div></td></tr><tr><td style="font-weight:bold;vertical-align:top;">wsgi.url_scheme</td><td style="vertical-align:top;">:</td><td><div>http</div></td></tr><tr><td style="font-weight:bold;vertical-align:top;">wsgi.version</td><td style="vertical-align:top;">:</td><td><div><table><tr><td><div>1</div></td></tr><tr><td><div>0</div></td></tr></table></div></td></tr><tr><td style="font-weight:bold;vertical-align:top;">wsgi_errors</td><td style="vertical-align:top;">:</td><td><div>&lt;open file &#x27;&lt;stderr&gt;&#x27;, mode &#x27;w&#x27; at 0x0130D0D0&gt;</div></td></tr><tr><td style="font-weight:bold;vertical-align:top;">wsgi_file_wrapper</td><td style="vertical-align:top;">:</td><td><div>&lt;class wsgiref.util.FileWrapper at 0x01F877A0&gt;</div></td></tr><tr><td style="font-weight:bold;vertical-align:top;">wsgi_input</td><td style="vertical-align:top;">:</td><td><div>&lt;socket._fileobject object at 0x07A33D30&gt;</div></td></tr><tr><td style="font-weight:bold;vertical-align:top;">wsgi_multiprocess</td><td style="vertical-align:top;">:</td><td><div>False</div></td></tr><tr><td style="font-weight:bold;vertical-align:top;">wsgi_multithread</td><td style="vertical-align:top;">:</td><td><div>True</div></td></tr><tr><td style="font-weight:bold;vertical-align:top;">wsgi_run_once</td><td style="vertical-align:top;">:</td><td><div>False</div></td></tr><tr><td style="font-weight:bold;vertical-align:top;">wsgi_url_scheme</td><td style="vertical-align:top;">:</td><td><div>http</div></td></tr><tr><td style="font-weight:bold;vertical-align:top;">wsgi_version</td><td style="vertical-align:top;">:</td><td><div><table><tr><td><div>1</div></td></tr><tr><td><div>0</div></td></tr></table></div></td></tr></table></div></td></tr><tr><td style="font-weight:bold;vertical-align:top;">extension</td><td style="vertical-align:top;">:</td><td><div>html</div></td></tr><tr><td style="font-weight:bold;vertical-align:top;">folder</td><td style="vertical-align:top;">:</td><td><div>C:\\Users\\suporte_renato\\Downloads\\web2py\\applications\\money\\</div></td></tr><tr><td style="font-weight:bold;vertical-align:top;">function</td><td style="vertical-align:top;">:</td><td><div>index</div></td></tr><tr><td style="font-weight:bold;vertical-align:top;">global_settings</td><td style="vertical-align:top;">:</td><td><div><table><tr><td style="font-weight:bold;vertical-align:top;">app_folders</td><td style="vertical-align:top;">:</td><td><div>set([&#x27;C:\\\\Users\\\\suporte_renato\\\\Downloads\\\\web2py\\\\applications\\\\welcome\\\\&#x27;, &#x27;C:\\\\Users\\\\suporte_renato\\\\Downloads\\\\web2py\\\\applications\\\\myapp\\\\&#x27;, &#x27;C:\\\\Users\\\\suporte_renato\\\\Downloads\\\\web2py\\\\applications\\\\admin\\\\&#x27;, &#x27;C:\\\\Users\\\\suporte_renato\\\\Downloads\\\\web2py\\\\applications\\\\money\\\\&#x27;])</div></td></tr><tr><td style="font-weight:bold;vertical-align:top;">applications_parent</td><td style="vertical-align:top;">:</td><td><div>C:\\Users\\suporte_renato\\Downloads\\web2py</div></td></tr><tr><td style="font-weight:bold;vertical-align:top;">cmd_args</td><td style="vertical-align:top;">:</td><td><div><table></table></div></td></tr><tr><td style="font-weight:bold;vertical-align:top;">cmd_options</td><td style="vertical-align:top;">:</td><td><div>&lt;Values at 0x24f2eb8: {&#x27;verbose&#x27;: False, &#x27;ip&#x27;: &#x27;127.0.0.1&#x27;, &#x27;debuglevel&#x27;: 30, &#x27;with_scheduler&#x27;: False, &#x27;ips&#x27;: [&#x27;2002:96a4:5d43::96a4:5d43&#x27;, &#x27;10.0.0.1&#x27;, &#x27;150.164.93.67&#x27;, &#x27;fe80::cd79:83e4:3298:eed0%15&#x27;, &#x27;fe80::7979:717f:e060:3b2%12&#x27;, &#x27;172.16.2.99&#x27;], &#x27;shutdown_timeout&#x27;: 5, &#x27;taskbar&#x27;: False, &#x27;with_coverage&#x27;: False, &#x27;scheduler_groups&#x27;: None, &#x27;port&#x27;: 8000, &#x27;maxthreads&#x27;: None, &#x27;softcron&#x27;: False, &#x27;server_name&#x27;: &#x27;NTIGER&#x27;, &#x27;bpython&#x27;: False, &#x27;nogui&#x27;: False, &#x27;pid_filename&#x27;: &#x27;httpserver.pid&#x27;, &#x27;extcron&#x27;: False, &#x27;runcron&#x27;: False, &#x27;run_system_tests&#x27;: False, &#x27;test&#x27;: None, &#x27;folder&#x27;: &#x27;C:\\\\Users\\\\suporte_renato\\\\Downloads\\\\web2py&#x27;, &#x27;config&#x27;: &#x27;&#x27;, &#x27;minthreads&#x27;: None, &#x27;shell&#x27;: None, &#x27;run&#x27;: &#x27;&#x27;, &#x27;log_filename&#x27;: &#x27;httpserver.log&#x27;, &#x27;profiler_dir&#x27;: None, &#x27;args&#x27;: [&#x27;&#x27;], &#x27;socket_timeout&#x27;: 5, &#x27;ssl_ca_certificate&#x27;: None, &#x27;scheduler&#x27;: None, &#x27;interfaces&#x27;: None, &#x27;ssl_private_key&#x27;: &#x27;&#x27;, &#x27;gae&#x27;: None, &#x27;password&#x27;: &#x27;&lt;ask&gt;&#x27;, &#x27;request_queue_size&#x27;: 5, &#x27;ssl_certificate&#x27;: &#x27;&#x27;, &#x27;cronjob&#x27;: False, &#x27;numthreads&#x27;: None, &#x27;quiet&#x27;: False, &#x27;import_models&#x27;: False, &#x27;timeout&#x27;: 10, &#x27;plain&#x27;: False, &#x27;nobanner&#x27;: False}&gt;</div></td></tr><tr><td style="font-weight:bold;vertical-align:top;">db_sessions</td><td style="vertical-align:top;">:</td><td><div>set([])</div></td></tr><tr><td style="font-weight:bold;vertical-align:top;">debugging</td><td style="vertical-align:top;">:</td><td><div>True</div></td></tr><tr><td style="font-weight:bold;vertical-align:top;">gluon_parent</td><td style="vertical-align:top;">:</td><td><div>C:\\Users\\suporte_renato\\Downloads\\web2py</div></td></tr><tr><td style="font-weight:bold;vertical-align:top;">is_jython</td><td style="vertical-align:top;">:</td><td><div>False</div></td></tr><tr><td style="font-weight:bold;vertical-align:top;">is_pypy</td><td style="vertical-align:top;">:</td><td><div>False</div></td></tr><tr><td style="font-weight:bold;vertical-align:top;">is_source</td><td style="vertical-align:top;">:</td><td><div>False</div></td></tr><tr><td style="font-weight:bold;vertical-align:top;">local_hosts</td><td style="vertical-align:top;">:</td><td><div><table><tr><td><div>2002:96a4:5d43::96a4:5d43</div></td></tr><tr><td><div>10.0.0.1</div></td></tr><tr><td><div>NTIGER</div></td></tr><tr><td><div>::ffff:127.0.0.1</div></td></tr><tr><td><div>::1</div></td></tr><tr><td><div>150.164.93.67</div></td></tr><tr><td><div>fe80::7979:717f:e060:3b2%12</div></td></tr><tr><td><div>fe80::cd79:83e4:3298:eed0%15</div></td></tr><tr><td><div>172.16.2.99</div></td></tr><tr><td><div>127.0.0.1</div></td></tr></table></div></td></tr><tr><td style="font-weight:bold;vertical-align:top;">web2py_version</td><td style="vertical-align:top;">:</td><td><div>2.9.12-stable+timestamp.2015.02.15.23.04.25</div></td></tr></table></div></td></tr><tr><td style="font-weight:bold;vertical-align:top;">is_https</td><td style="vertical-align:top;">:</td><td><div>False</div></td></tr><tr><td style="font-weight:bold;vertical-align:top;">is_local</td><td style="vertical-align:top;">:</td><td><div>True</div></td></tr><tr><td style="font-weight:bold;vertical-align:top;">is_restful</td><td style="vertical-align:top;">:</td><td><div>False</div></td></tr><tr><td style="font-weight:bold;vertical-align:top;">is_sheduler</td><td style="vertical-align:top;">:</td><td><div>None</div></td></tr><tr><td style="font-weight:bold;vertical-align:top;">is_shell</td><td style="vertical-align:top;">:</td><td><div>None</div></td></tr><tr><td style="font-weight:bold;vertical-align:top;">now</td><td style="vertical-align:top;">:</td><td><div>datetime.datetime(2015, 3, 10, 9, 36, 46, 605000)</div></td></tr><tr><td style="font-weight:bold;vertical-align:top;">raw_args</td><td style="vertical-align:top;">:</td><td><div></div></td></tr><tr><td style="font-weight:bold;vertical-align:top;">raw_extension</td><td style="vertical-align:top;">:</td><td><div>None</div></td></tr><tr><td style="font-weight:bold;vertical-align:top;">url</td><td style="vertical-align:top;">:</td><td><div>/money</div></td></tr><tr><td style="font-weight:bold;vertical-align:top;">utcnow</td><td style="vertical-align:top;">:</td><td><div>datetime.datetime(2015, 3, 10, 12, 36, 46, 605000)</div></td></tr><tr><td style="font-weight:bold;vertical-align:top;">uuid</td><td style="vertical-align:top;">:</td><td><div>money/127.0.0.1.2015-03-10.09-36-46.c0ed0b54-5e9d-47f1-bc09-4ccde48be6d0</div></td></tr><tr><td style="font-weight:bold;vertical-align:top;">wsgi</td><td style="vertical-align:top;">:</td><td><div>&lt;gluon.main.LazyWSGI object at 0x07BB0810&gt;</div></td></tr></table></div>'
tRp58
sS'frames'
p59
(lp60
(dp61
S'file'
p62
S'C:\\Users\\suporte_renato\\Downloads\\web2py\\gluon\\restricted.py'
p63
sS'dump'
p64
(dp65
S'environment'
p66
S"{'A': <class 'gluon.html.A'>, 'ANY_OF': <class 'gluon.validators.ANY_OF'>, 'ASSIGNJS': <function ASSIGNJS>, 'Auth': <class 'gluon.tools.Auth'>, 'B': <class 'gluon.html.B'>, 'BEAUTIFY': <class 'gluon.html.BEAUTIFY'>, 'BODY': <class 'gluon.html.BODY'>, 'BR': <class 'gluon.html.BR'>, 'BUTTON': <class 'gluon.html.BUTTON'>, 'CAT': <class 'gluon.html.CAT'>, ...}"
p67
sS'ccode'
p68
S'<code object <module> at 07C069B0, file "C:\\User...ications\\money\\views\\default/index.html", line 1>'
p69
ssS'lnum'
p70
I224
sS'lines'
p71
(dp72
I224
S'        exec ccode in environment'
p73
sI225
S'    except HTTP:'
p74
sI226
S'        raise'
p75
sI227
S'    except RestrictedError:'
p76
sI228
S'        # do not encapsulate (obfuscate) the original RestrictedError'
p77
sI219
S'    try:'
p78
sI220
S'        if isinstance(code, types.CodeType):'
p79
sI221
S'            ccode = code'
p80
sI222
S'        else:'
p81
sI223
S'            ccode = compile2(code, layer)'
p82
ssS'call'
p83
S'(code=r"response.write(\'<html>\\r\\n    <head>\\r\\n        ...iv>\\r\\n    </body>\\r\\n</html>\\r\\n\', escape=False)", environment={\'A\': <class \'gluon.html.A\'>, \'ANY_OF\': <class \'gluon.validators.ANY_OF\'>, \'ASSIGNJS\': <function ASSIGNJS>, \'Auth\': <class \'gluon.tools.Auth\'>, \'B\': <class \'gluon.html.B\'>, \'BEAUTIFY\': <class \'gluon.html.BEAUTIFY\'>, \'BODY\': <class \'gluon.html.BODY\'>, \'BR\': <class \'gluon.html.BR\'>, \'BUTTON\': <class \'gluon.html.BUTTON\'>, \'CAT\': <class \'gluon.html.CAT\'>, ...}, layer=r\'C:\\Users\\suporte_renato\\Downloads\\web2py\\applications\\money\\views\\default/index.html\')'
p84
sS'func'
p85
S'restricted'
p86
sa(dp87
g62
S'C:\\Users\\suporte_renato\\Downloads\\web2py\\applications\\money\\views\\default\\index.html'
p88
sg64
(dp89
S'div'
p90
S'undefined'
p91
ssg70
I34
sg71
(dp92
I32
S'else:'
p93
sI33
S'    response.write(\'\\r\\n                            <tr><td colspan="4">\', escape=False)'
p94
sI34
S'    response.write(message)'
p95
sI35
S"    response.write('</td></tr>\\r\\n                            ', escape=False)"
p96
sI36
S'    pass'
p97
sI37
S'response.write(\'\\r\\n                        </tbody>\\r\\n                    </table>\\r\\n                </div>\\r\\n        </div>\\r\\n        <div class="container">\\r\\n            <button type="button" class="btn btn-primary" onclick="show_form(\\\'new_expense\\\')">Inserir despesa</button>\\r\\n            <div class="container" style="display:none" id="new_expense">\\r\\n                <form method="post" action="money" id="myform">\\r\\n                    <div class="table-responsive">\\r\\n                        <table class="table">\\r\\n                            <thead>\\r\\n                                <tr>\\r\\n                                    <th>Descri&ccedil;&atilde;o</th>\\r\\n                                    <th>Tipo</th>\\r\\n                                    <th>Valor</th>\\r\\n                                    <th>Forma de pagamento</th>\\r\\n                                </tr>\\r\\n                            </thead>\\r\\n                            <tbody>\\r\\n                                <tr>\\r\\n                                    <td><input type="text" name="e_description" id="e_description" /></td>\\r\\n                                    <td><input type="text" name="e_type" id="e_type" /></td>\\r\\n                                    <td><input type="text" name="e_value" id="e_value" /></td>\\r\\n                                    <td>\\r\\n                                        <select class="form-control" name="e_payment" id="e_payment">\\r\\n                                            <option>Cart&atilde;o de Cr&eacute;dito</option>\\r\\n                                            <option>Cart&atilde;o de D&eacute;bito</option>\\r\\n                                            <option>Dinheiro</option>\\r\\n                                        </select>\\r\\n                                    </td>\\r\\n                                </tr>\\r\\n                            </tbody>\\r\\n                        </table>\\r\\n                    </div>\\r\\n                    <div class="container">\\r\\n                        <button type="button" class="btn btn-primary" onclick="myform.submit()">Enviar Dados</button>\\r\\n                        <button type="button" class="btn btn-primary" onclick="hide_form(\\\'myform\\\')">Cancelar</button>\\r\\n                    </div>\\r\\n                    <input type="hidden" name="is_submition" value="true" />\\r\\n                </form>\\r\\n            </div>\\r\\n        </div>\\r\\n    </body>\\r\\n</html>\\r\\n\', escape=False)'
p98
sI25
S"        response.write('</td>\\r\\n                                <td>', escape=False)"
p99
sI26
S'        response.write(expense.e_value)'
p100
sI27
S"        response.write('</td>\\r\\n                                <td>', escape=False)"
p101
sI28
S'        response.write(expense.e_payment)'
p102
sI29
S"        response.write('</td>\\r\\n                            </tr>\\r\\n                            ', escape=False)"
p103
sI30
S'        pass'
p104
sI31
S"    response.write('\\r\\n                            ', escape=False)"
p105
ssg83
S'()'
p106
sg85
S'<module>'
p107
sasS'pyver'
p108
S'Python 2.7.9: C:\\Users\\suporte_renato\\Downloads\\web2py\\web2py.exe (prefix: C:\\Python27)'
p109
sS'session'
p110
g57
(S's\x1a\x00\x00\x00<div><table></table></div>'
tRp111
sS'etype'
p112
S"<type 'exceptions.NameError'>"
p113
sS'date'
p114
S'Tue Mar 10 09:36:46 2015'
p115
sS'response'
p116
g57
(S'sY1\x00\x00<div><table><tr><td style="font-weight:bold;vertical-align:top;">body</td><td style="vertical-align:top;">:</td><td><div>&lt;cStringIO.StringO object at 0x0771EE20&gt;</div></td></tr><tr><td style="font-weight:bold;vertical-align:top;">cookies</td><td style="vertical-align:top;">:</td><td><div><table><tr><td style="font-weight:bold;vertical-align:top;">session_id_money</td><td style="vertical-align:top;">:</td><td><div>127.0.0.1-7c19e990-d506-4cca-9d6f-676c0b4d1b7c<table><tr><td style="font-weight:bold;vertical-align:top;">comment</td><td style="vertical-align:top;">:</td><td><div></div></td></tr><tr><td style="font-weight:bold;vertical-align:top;">domain</td><td style="vertical-align:top;">:</td><td><div></div></td></tr><tr><td style="font-weight:bold;vertical-align:top;">expires</td><td style="vertical-align:top;">:</td><td><div></div></td></tr><tr><td style="font-weight:bold;vertical-align:top;">httponly</td><td style="vertical-align:top;">:</td><td><div></div></td></tr><tr><td style="font-weight:bold;vertical-align:top;">max-age</td><td style="vertical-align:top;">:</td><td><div></div></td></tr><tr><td style="font-weight:bold;vertical-align:top;">path</td><td style="vertical-align:top;">:</td><td><div>/</div></td></tr><tr><td style="font-weight:bold;vertical-align:top;">secure</td><td style="vertical-align:top;">:</td><td><div></div></td></tr><tr><td style="font-weight:bold;vertical-align:top;">version</td><td style="vertical-align:top;">:</td><td><div></div></td></tr></table></div></td></tr></table></div></td></tr><tr><td style="font-weight:bold;vertical-align:top;">delimiters</td><td style="vertical-align:top;">:</td><td><div><table><tr><td><div>{{</div></td></tr><tr><td><div>}}</div></td></tr></table></div></td></tr><tr><td style="font-weight:bold;vertical-align:top;">files</td><td style="vertical-align:top;">:</td><td><div><table></table></div></td></tr><tr><td style="font-weight:bold;vertical-align:top;">flash</td><td style="vertical-align:top;">:</td><td><div></div></td></tr><tr><td style="font-weight:bold;vertical-align:top;">form_label_separator</td><td style="vertical-align:top;">:</td><td><div>: </div></td></tr><tr><td style="font-weight:bold;vertical-align:top;">formstyle</td><td style="vertical-align:top;">:</td><td><div>table3cols</div></td></tr><tr><td style="font-weight:bold;vertical-align:top;">generic_patterns</td><td style="vertical-align:top;">:</td><td><div><table><tr><td><div>*</div></td></tr></table></div></td></tr><tr><td style="font-weight:bold;vertical-align:top;">google_analytics_id</td><td style="vertical-align:top;">:</td><td><div>None</div></td></tr><tr><td style="font-weight:bold;vertical-align:top;">headers</td><td style="vertical-align:top;">:</td><td><div><table><tr><td style="font-weight:bold;vertical-align:top;">X-Powered-By</td><td style="vertical-align:top;">:</td><td><div>web2py</div></td></tr></table></div></td></tr><tr><td style="font-weight:bold;vertical-align:top;">logo</td><td style="vertical-align:top;">:</td><td><div><a class="brand" href="http://www.web2py.com/"><b>web<span>2</span>py</b>&trade;&nbsp;</a></div></td></tr><tr><td style="font-weight:bold;vertical-align:top;">menu</td><td style="vertical-align:top;">:</td><td><div><table><tr><td><div><table><tr><td><div>Principal</div></td></tr><tr><td><div>False</div></td></tr><tr><td><div>/money/default/index</div></td></tr><tr><td><div><table></table></div></td></tr></table></div></td></tr><tr><td><div><table><tr><td><div><span class="highlighted">web2py</span></div></td></tr><tr><td><div>False</div></td></tr><tr><td><div>http://web2py.com</div></td></tr><tr><td><div><table><tr><td><div><table><tr><td><div>Meus sites</div></td></tr><tr><td><div>False</div></td></tr><tr><td><div>/admin/default/site</div></td></tr></table></div></td></tr><tr><td><div><table><tr><td><div>Esta aplica\xc3\xa7\xc3\xa3o</div></td></tr><tr><td><div>False</div></td></tr><tr><td><div>/admin/default/design/money</div></td></tr><tr><td><div>[(&lt;lazyT &#x27;Controller&#x27;&gt;, False, &#x27;/admin/default/edit/money/controllers/default.py&#x27;), (&lt;lazyT &#x27;View&#x27;&gt;, False, &#x27;/admin/default/edit/money/views/default/index.html&#x27;), (&lt;lazyT &#x27;Layout&#x27;&gt;, False, &#x27;/admin/default/edit/money/views/layout.html&#x27;), (&lt;lazyT &#x27;Stylesheet&#x27;&gt;, False, &#x27;/admin/default/edit/money/static/css/web2py.css&#x27;), (&lt;lazyT &#x27;DB Model&#x27;&gt;, False, &#x27;/admin/default/edit/money/models/db.py&#x27;), (&lt;lazyT &#x27;Menu Model&#x27;&gt;, False, &#x27;/admin/default/edit/money/models/menu.py&#x27;), (&lt;lazyT &#x27;Database&#x27;&gt;, False, &#x27;/money/appadmin/index&#x27;), (&lt;lazyT &#x27;Errors&#x27;&gt;, False, &#x27;/admin/default/errors/money&#x27;), (&lt;lazyT &#x27;About&#x27;&gt;, False, &#x27;/admin/default/about/money&#x27;)]</div></td></tr></table></div></td></tr><tr><td><div><table><tr><td><div>web2py.com</div></td></tr><tr><td><div>False</div></td></tr><tr><td><div>http://www.web2py.com</div></td></tr><tr><td><div>[(&lt;lazyT &#x27;Download&#x27;&gt;, False, &#x27;http://www.web2py.com/examples/default/download&#x27;), (&lt;lazyT &#x27;Support&#x27;&gt;, False, &#x27;http://www.web2py.com/examples/default/support&#x27;), (&lt;lazyT &#x27;Demo&#x27;&gt;, False, &#x27;http://web2py.com/demo_admin&#x27;), (&lt;lazyT &#x27;Quick Examples&#x27;&gt;, False, &#x27;http://web2py.com/examples/default/examples&#x27;), (&lt;lazyT &#x27;FAQ&#x27;&gt;, False, &#x27;http://web2py.com/AlterEgo&#x27;), (&lt;lazyT &#x27;Videos&#x27;&gt;, False, &#x27;http://www.web2py.com/examples/default/videos/&#x27;), (&lt;lazyT &#x27;Free Applications&#x27;&gt;, False, &#x27;http://web2py.com/appliances&#x27;), (&lt;lazyT &#x27;Plugins&#x27;&gt;, False, &#x27;http://web2py.com/plugins&#x27;), (&lt;lazyT &#x27;Layouts&#x27;&gt;, False, &#x27;http://web2py.com/layouts&#x27;), (&lt;lazyT &#x27;Recipes&#x27;&gt;, False, &#x27;http://web2pyslices.com/&#x27;), (&lt;lazyT &#x27;Semantic&#x27;&gt;, False, &#x27;http://web2py.com/semantic&#x27;)]</div></td></tr></table></div></td></tr><tr><td><div><table><tr><td><div>Documenta\xc3\xa7\xc3\xa3o</div></td></tr><tr><td><div>False</div></td></tr><tr><td><div>http://www.web2py.com/book</div></td></tr><tr><td><div>[(&lt;lazyT &#x27;Preface&#x27;&gt;, False, &#x27;http://www.web2py.com/book/default/chapter/00&#x27;), (&lt;lazyT &#x27;Introduction&#x27;&gt;, False, &#x27;http://www.web2py.com/book/default/chapter/01&#x27;), (&lt;lazyT &#x27;Python&#x27;&gt;, False, &#x27;http://www.web2py.com/book/default/chapter/02&#x27;), (&lt;lazyT &#x27;Overview&#x27;&gt;, False, &#x27;http://www.web2py.com/book/default/chapter/03&#x27;), (&lt;lazyT &#x27;The Core&#x27;&gt;, False, &#x27;http://www.web2py.com/book/default/chapter/04&#x27;), (&lt;lazyT &#x27;The Views&#x27;&gt;, False, &#x27;http://www.web2py.com/book/default/chapter/05&#x27;), (&lt;lazyT &#x27;Database&#x27;&gt;, False, &#x27;http://www.web2py.com/book/default/chapter/06&#x27;), (&lt;lazyT &#x27;Forms and Validators&#x27;&gt;, False, &#x27;http://www.web2py.com/book/default/chapter/07&#x27;), (&lt;lazyT &#x27;Email and SMS&#x27;&gt;, False, &#x27;http://www.web2py.com/book/default/chapter/08&#x27;), (&lt;lazyT &#x27;Access Control&#x27;&gt;, False, &#x27;http://www.web2py.com/book/default/chapter/09&#x27;), (&lt;lazyT &#x27;Services&#x27;&gt;, False, &#x27;http://www.web2py.com/book/default/chapter/10&#x27;), (&lt;lazyT &#x27;Ajax Recipes&#x27;&gt;, False, &#x27;http://www.web2py.com/book/default/chapter/11&#x27;), (&lt;lazyT &#x27;Components and Plugins&#x27;&gt;, False, &#x27;http://www.web2py.com/book/default/chapter/12&#x27;), (&lt;lazyT &#x27;Deployment Recipes&#x27;&gt;, False, &#x27;http://www.web2py.com/book/default/chapter/13&#x27;), (&lt;lazyT &#x27;Other Recipes&#x27;&gt;, False, &#x27;http://www.web2py.com/book/default/chapter/14&#x27;), (&lt;lazyT &#x27;Buy this book&#x27;&gt;, False, &#x27;http://stores.lulu.com/web2py&#x27;)]</div></td></tr></table></div></td></tr><tr><td><div><table><tr><td><div>Comunidade</div></td></tr><tr><td><div>False</div></td></tr><tr><td><div>None</div></td></tr><tr><td><div>[(&lt;lazyT &#x27;Groups&#x27;&gt;, False, &#x27;http://www.web2py.com/examples/default/usergroups&#x27;), (&lt;lazyT &#x27;Twitter&#x27;&gt;, False, &#x27;http://twitter.com/web2py&#x27;), (&lt;lazyT &#x27;Live Chat&#x27;&gt;, False, &#x27;http://webchat.freenode.net/?channels=web2py&#x27;)]</div></td></tr></table></div></td></tr><tr><td><div><table><tr><td><div>Plugins</div></td></tr><tr><td><div>False</div></td></tr><tr><td><div>None</div></td></tr><tr><td><div>[(&#x27;plugin_wiki&#x27;, False, &#x27;http://web2py.com/examples/default/download&#x27;), (&lt;lazyT &#x27;Other Plugins&#x27;&gt;, False, &#x27;http://web2py.com/plugins&#x27;), (&lt;lazyT &#x27;Layout Plugins&#x27;&gt;, False, &#x27;http://web2py.com/layouts&#x27;)]</div></td></tr></table></div></td></tr></table></div></td></tr></table></div></td></tr></table></div></td></tr><tr><td style="font-weight:bold;vertical-align:top;">meta</td><td style="vertical-align:top;">:</td><td><div><table><tr><td style="font-weight:bold;vertical-align:top;">author</td><td style="vertical-align:top;">:</td><td><div>Your Name &lt;you@example.com&gt;</div></td></tr><tr><td style="font-weight:bold;vertical-align:top;">generator</td><td style="vertical-align:top;">:</td><td><div>Web2py Web Framework</div></td></tr><tr><td style="font-weight:bold;vertical-align:top;">keywords</td><td style="vertical-align:top;">:</td><td><div>web2py, python, framework</div></td></tr></table></div></td></tr><tr><td style="font-weight:bold;vertical-align:top;">models_to_run</td><td style="vertical-align:top;">:</td><td><div><table><tr><td><div>^\\w+\\.py$</div></td></tr><tr><td><div>^default/\\w+\\.py$</div></td></tr><tr><td><div>^default/index/\\w+\\.py$</div></td></tr></table></div></td></tr><tr><td style="font-weight:bold;vertical-align:top;">postprocessing</td><td style="vertical-align:top;">:</td><td><div><table></table></div></td></tr><tr><td style="font-weight:bold;vertical-align:top;">session_client</td><td style="vertical-align:top;">:</td><td><div>127.0.0.1</div></td></tr><tr><td style="font-weight:bold;vertical-align:top;">session_cookie_compression_level</td><td style="vertical-align:top;">:</td><td><div>None</div></td></tr><tr><td style="font-weight:bold;vertical-align:top;">session_cookie_expires</td><td style="vertical-align:top;">:</td><td><div>None</div></td></tr><tr><td style="font-weight:bold;vertical-align:top;">session_cookie_key</td><td style="vertical-align:top;">:</td><td><div>None</div></td></tr><tr><td style="font-weight:bold;vertical-align:top;">session_data_name</td><td style="vertical-align:top;">:</td><td><div>session_data_money</div></td></tr><tr><td style="font-weight:bold;vertical-align:top;">session_file</td><td style="vertical-align:top;">:</td><td><div>None</div></td></tr><tr><td style="font-weight:bold;vertical-align:top;">session_filename</td><td style="vertical-align:top;">:</td><td><div>C:\\Users\\suporte_renato\\Downloads\\web2py\\applications\\money\\sessions\\127.0.0.1-7c19e990-d506-4cca-9d6f-676c0b4d1b7c</div></td></tr><tr><td style="font-weight:bold;vertical-align:top;">session_hash</td><td style="vertical-align:top;">:</td><td><div>c0762cbf4baf7f9af97c051e7fcb8083</div></td></tr><tr><td style="font-weight:bold;vertical-align:top;">session_id</td><td style="vertical-align:top;">:</td><td><div>127.0.0.1-7c19e990-d506-4cca-9d6f-676c0b4d1b7c</div></td></tr><tr><td style="font-weight:bold;vertical-align:top;">session_id_name</td><td style="vertical-align:top;">:</td><td><div>session_id_money</div></td></tr><tr><td style="font-weight:bold;vertical-align:top;">session_masterapp</td><td style="vertical-align:top;">:</td><td><div>money</div></td></tr><tr><td style="font-weight:bold;vertical-align:top;">session_new</td><td style="vertical-align:top;">:</td><td><div>True</div></td></tr><tr><td style="font-weight:bold;vertical-align:top;">session_storage_type</td><td style="vertical-align:top;">:</td><td><div>file</div></td></tr><tr><td style="font-weight:bold;vertical-align:top;">status</td><td style="vertical-align:top;">:</td><td><div>200</div></td></tr><tr><td style="font-weight:bold;vertical-align:top;">subtitle</td><td style="vertical-align:top;">:</td><td><div></div></td></tr><tr><td style="font-weight:bold;vertical-align:top;">title</td><td style="vertical-align:top;">:</td><td><div>Money</div></td></tr><tr><td style="font-weight:bold;vertical-align:top;">view</td><td style="vertical-align:top;">:</td><td><div>default/index.html</div></td></tr></table></div>'
tRp117
sS'locals'
p118
(dp119
S'Service'
p120
S"<class 'gluon.tools.Service'>"
p121
sS'OBJECT'
p122
S"<class 'gluon.html.OBJECT'>"
p123
sS'SQLDB'
p124
S"<class 'gluon.dal.DAL'>"
p125
sg110
S'<Storage {}>'
p126
sS'LINK'
p127
S"<class 'gluon.html.LINK'>"
p128
sS'BR'
p129
S"<class 'gluon.html.BR'>"
p130
sS'local_import'
p131
S'<function <lambda>>'
p132
sS'OPTGROUP'
p133
S"<class 'gluon.html.OPTGROUP'>"
p134
sS'__package__'
p135
S'None'
p136
sS'PRE'
p137
S"<class 'gluon.html.PRE'>"
p138
sS'IS_INT_IN_RANGE'
p139
S"<class 'gluon.validators.IS_INT_IN_RANGE'>"
p140
sS'IS_LOWER'
p141
S"<class 'gluon.validators.IS_LOWER'>"
p142
sS'IS_STRONG'
p143
S"<class 'gluon.validators.IS_STRONG'>"
p144
sS'cache'
p145
S'<gluon.cache.Cache object>'
p146
sS'IS_IN_DB'
p147
S"<class 'gluon.validators.IS_IN_DB'>"
p148
sS'TAG'
p149
S'<gluon.html.__TAG__ object>'
p150
sS'SQLField'
p151
S"<class 'pydal.objects.Field'>"
p152
sS'mail'
p153
S'<gluon.tools.Mail object>'
p154
sS'BODY'
p155
S"<class 'gluon.html.BODY'>"
p156
sS'IS_DATE_IN_RANGE'
p157
S"<class 'gluon.validators.IS_DATE_IN_RANGE'>"
p158
sS'IFRAME'
p159
S"<class 'gluon.html.IFRAME'>"
p160
sS'URL'
p161
S'<function URL>'
p162
sS'__file__'
p163
S"r'C:\\Users\\suporte_renato\\Downloads\\web2py\\applications\\money\\views\\default/index.html'"
p164
sS'db'
p165
S'<DAL uri="sqlite://storage.sqlite">'
p166
sS'auth'
p167
S'<gluon.tools.Auth object>'
p168
sS'P'
S"<class 'gluon.html.P'>"
p169
sS'TFOOT'
p170
S"<class 'gluon.html.TFOOT'>"
p171
sS'XHTML'
p172
S"<class 'gluon.html.XHTML'>"
p173
sS'datetime'
p174
S"<module 'datetime' (built-in)>"
p175
sS'ON'
p176
S'True'
p177
sS'OL'
p178
S"<class 'gluon.html.OL'>"
p179
sS'success'
p180
S'False'
p181
sS'TEXTAREA'
p182
S"<class 'gluon.html.TEXTAREA'>"
p183
sS'MENU'
p184
S"<class 'gluon.html.MENU'>"
p185
sS'IS_IMAGE'
p186
S"<class 'gluon.validators.IS_IMAGE'>"
p187
sS'EM'
p188
S"<class 'gluon.html.EM'>"
p189
sS'CODE'
p190
S"<class 'gluon.html.CODE'>"
p191
sS'HTTP'
p192
S"<class 'gluon.http.HTTP'>"
p193
sS'HR'
p194
S"<class 'gluon.html.HR'>"
p195
sS'IS_DATETIME'
p196
S"<class 'gluon.validators.IS_DATETIME'>"
p197
sS'STYLE'
p198
S"<class 'gluon.html.STYLE'>"
p199
sS'LABEL'
p200
S"<class 'gluon.html.LABEL'>"
p201
sS'CLEANUP'
p202
S"<class 'gluon.validators.CLEANUP'>"
p203
sS'plugins'
p204
S'<gluon.tools.PluginManager object>'
p205
sS'SELECT'
p206
S"<class 'gluon.html.SELECT'>"
p207
sS'use_janrain'
p208
S'<function use_janrain>'
p209
sS'CENTER'
p210
S"<class 'gluon.html.CENTER'>"
p211
sS'Auth'
p212
S"<class 'gluon.tools.Auth'>"
p213
sS'DEVELOPMENT_MENU'
p214
g177
sS'__builtins__'
p215
S"{'ArithmeticError': <type 'exceptions.ArithmeticError'>, 'AssertionError': <type 'exceptions.AssertionError'>, 'AttributeError': <type 'exceptions.AttributeError'>, 'BaseException': <type 'exceptions.BaseException'>, 'BufferError': <type 'exceptions.BufferError'>, 'BytesWarning': <type 'exceptions.BytesWarning'>, 'DeprecationWarning': <type 'exceptions.DeprecationWarning'>, 'EOFError': <type 'exceptions.EOFError'>, 'Ellipsis': Ellipsis, 'EnvironmentError': <type 'exceptions.EnvironmentError'>, ...}"
p216
sS'HTML'
p217
S"<class 'gluon.html.HTML'>"
p218
sS'SQLFORM'
p219
S"<class 'gluon.sqlhtml.SQLFORM'>"
p220
sS'LOAD'
p221
S'<function LOAD>'
p222
sS'redirect'
p223
S'<function redirect>'
p224
sS'FIELDSET'
p225
S"<class 'gluon.html.FIELDSET'>"
p226
sS'IS_EQUAL_TO'
p227
S"<class 'gluon.validators.IS_EQUAL_TO'>"
p228
sS'embed64'
p229
S'<function embed64>'
p230
sS'IS_LIST_OF'
p231
S"<class 'gluon.validators.IS_LIST_OF'>"
p232
sS'mes'
p233
S"'Dezembro'"
p234
sS'INPUT'
p235
S"<class 'gluon.html.INPUT'>"
p236
sS'EMBED'
p237
S"<class 'gluon.html.EMBED'>"
p238
sS'_'
S'<function _>'
p239
sS'H2'
p240
S"<class 'gluon.html.H2'>"
p241
sS'H3'
p242
S"<class 'gluon.html.H3'>"
p243
sS'BUTTON'
p244
S"<class 'gluon.html.BUTTON'>"
p245
sS'H1'
p246
S"<class 'gluon.html.H1'>"
p247
sS'H6'
p248
S"<class 'gluon.html.H6'>"
p249
sS'H4'
p250
S"<class 'gluon.html.H4'>"
p251
sS'H5'
p252
S"<class 'gluon.html.H5'>"
p253
sS'UL'
p254
S"<class 'gluon.html.UL'>"
p255
sS'IS_UPPER'
p256
S"<class 'gluon.validators.IS_UPPER'>"
p257
sS'xmlescape'
p258
S'<function xmlescape>'
p259
sS'IS_TIME'
p260
S"<class 'gluon.validators.IS_TIME'>"
p261
sS'OPTION'
p262
S"<class 'gluon.html.OPTION'>"
p263
sS'TITLE'
p264
S"<class 'gluon.html.TITLE'>"
p265
sS'CRYPT'
p266
S"<class 'gluon.validators.CRYPT'>"
p267
sS'IS_EMPTY_OR'
p268
S"<class 'gluon.validators.IS_EMPTY_OR'>"
p269
sS'MARKMIN'
p270
S"<class 'gluon.html.MARKMIN'>"
p271
sS'__name__'
p272
S"'__restricted__'"
p273
sS'STRONG'
p274
S"<class 'gluon.html.STRONG'>"
p275
sS'COL'
p276
S"<class 'gluon.html.COL'>"
p277
sS'service'
p278
S'<gluon.tools.Service object>'
p279
sS'SCRIPT'
p280
S"<class 'gluon.html.SCRIPT'>"
p281
sS'TABLE'
p282
S"<class 'gluon.html.TABLE'>"
p283
sS'IS_IPV4'
p284
S"<class 'gluon.validators.IS_IPV4'>"
p285
sS'IS_LENGTH'
p286
S"<class 'gluon.validators.IS_LENGTH'>"
p287
sS'IS_IPV6'
p288
S"<class 'gluon.validators.IS_IPV6'>"
p289
sS'XML'
p290
S"<class 'gluon.html.XML'>"
p291
sS'B'
S"<class 'gluon.html.B'>"
p292
sS'IMG'
p293
S"<class 'gluon.html.IMG'>"
p294
sS'SQLTABLE'
p295
S"<class 'gluon.sqlhtml.SQLTABLE'>"
p296
sS'IS_MATCH'
p297
S"<class 'gluon.validators.IS_MATCH'>"
p298
sS'IS_ALPHANUMERIC'
p299
S"<class 'gluon.validators.IS_ALPHANUMERIC'>"
p300
sS'CAT'
p301
S"<class 'gluon.html.CAT'>"
p302
sS'SPAN'
p303
S"<class 'gluon.html.SPAN'>"
p304
sS'IS_JSON'
p305
S"<class 'gluon.validators.IS_JSON'>"
p306
sS'IS_IPADDRESS'
p307
S"<class 'gluon.validators.IS_IPADDRESS'>"
p308
sS'IS_SLUG'
p309
S"<class 'gluon.validators.IS_SLUG'>"
p310
sS'BEAUTIFY'
p311
S"<class 'gluon.html.BEAUTIFY'>"
p312
sS'META'
p313
S"<class 'gluon.html.META'>"
p314
sS'error'
p315
S"ValueError('day is out of range for month',)"
p316
sS'IS_DATE'
p317
S"<class 'gluon.validators.IS_DATE'>"
p318
sS'IS_EMAIL'
p319
S"<class 'gluon.validators.IS_EMAIL'>"
p320
sS'IS_NOT_EMPTY'
p321
S"<class 'gluon.validators.IS_NOT_EMPTY'>"
p322
sS'IS_FLOAT_IN_RANGE'
p323
S"<class 'gluon.validators.IS_FLOAT_IN_RANGE'>"
p324
sS'TBODY'
p325
S"<class 'gluon.html.TBODY'>"
p326
sS'expenses'
p327
S'[]'
p328
sS'Field'
p329
S"<class 'pydal.objects.Field'>"
p330
sS'IS_LIST_OF_EMAILS'
p331
S"<class 'gluon.validators.IS_LIST_OF_EMAILS'>"
p332
sS'DIV'
p333
S"<class 'gluon.html.DIV'>"
p334
sS'LEGEND'
p335
S"<class 'gluon.html.LEGEND'>"
p336
sS'COLGROUP'
p337
S"<class 'gluon.html.COLGROUP'>"
p338
sS'DAL'
p339
S"<class 'gluon.dal.DAL'>"
p340
sS'ASSIGNJS'
p341
S'<function ASSIGNJS>'
p342
sS'TR'
p343
S"<class 'gluon.html.TR'>"
p344
sS'LI'
p345
S"<class 'gluon.html.LI'>"
p346
sS'TH'
p347
S"<class 'gluon.html.TH'>"
p348
sS'li_class'
p349
S"'inactive'"
p350
sS'TD'
p351
S"<class 'gluon.html.TD'>"
p352
sS'PluginManager'
p353
S"<class 'gluon.tools.PluginManager'>"
p354
sS'IS_URL'
p355
S"<class 'gluon.validators.IS_URL'>"
p356
sS'A'
S"<class 'gluon.html.A'>"
p357
sS'HEAD'
p358
S"<class 'gluon.html.HEAD'>"
p359
sS'IS_DATETIME_IN_RANGE'
p360
S"<class 'gluon.validators.IS_DATETIME_IN_RANGE'>"
p361
sS'FORM'
p362
S"<class 'gluon.html.FORM'>"
p363
sS'I'
S"<class 'gluon.html.I'>"
p364
sS'IS_NOT_IN_DB'
p365
S"<class 'gluon.validators.IS_NOT_IN_DB'>"
p366
sg116
S"<Storage {'body': <cStringIO.StringO object at 0...a> at 0x07A331F0>, 'view': 'default/index.html'}>"
p367
sS'THEAD'
p368
S"<class 'gluon.html.THEAD'>"
p369
sS'ANY_OF'
p370
S"<class 'gluon.validators.ANY_OF'>"
p371
sS'IS_NULL_OR'
p372
S"<class 'gluon.validators.IS_EMPTY_OR'>"
p373
sg56
S"<Storage {'_vars': <Storage {}>, 'function': 'in...nato\\\\Downloads\\\\web2py\\\\applications\\\\money\\\\'}>"
p374
sS'IS_EXPR'
p375
S"<class 'gluon.validators.IS_EXPR'>"
p376
sS'T'
S'<gluon.languages.translator object>'
p377
sS'IS_IN_SET'
p378
S"<class 'gluon.validators.IS_IN_SET'>"
p379
sS'IS_UPLOAD_FILENAME'
p380
S"<class 'gluon.validators.IS_UPLOAD_FILENAME'>"
p381
sS'TT'
p382
S"<class 'gluon.html.TT'>"
p383
sS'IS_DECIMAL_IN_RANGE'
p384
S"<class 'gluon.validators.IS_DECIMAL_IN_RANGE'>"
p385
sssS'traceback'
p386
S'Traceback (most recent call last):\n  File "C:\\Users\\suporte_renato\\Downloads\\web2py\\gluon\\restricted.py", line 224, in restricted\n    exec ccode in environment\n  File "C:\\Users\\suporte_renato\\Downloads\\web2py\\applications\\money\\views\\default/index.html", line 34, in <module>\n    </div>\nNameError: name \'message\' is not defined\n'
p387
s.